(dp0
S'comparison_null'
p1
(lp2
F0.46940726577437858
aF0.46660305343511449
aF0.47657743785850859
aF0.46851145038167941
aF0.48709369024856597
aF0.4588910133843212
aF0.47944550669216063
aF0.47466539196940727
aF0.47992351816443596
aF0.44980879541108987
aF0.47179732313575523
aF0.47041984732824427
aF0.48139312977099236
aF0.47801147227533458
aF0.47084130019120457
aF0.46898854961832059
aF0.4751434034416826
aF0.46797323135755259
aF0.45944656488549618
aF0.46128107074569791
aF0.46988527724665391
aF0.47275334608030595
aF0.45172084130019119
aF0.47036328871892924
aF0.46032504780114725
aF0.46367112810707456
aF0.47275334608030595
aF0.47323135755258128
aF0.47185114503816794
aF0.47275334608030595
aF0.47036328871892924
aF0.48565965583173998
aF0.46421755725190839
aF0.47519083969465647
aF0.4737595419847328
aF0.46367112810707456
aF0.48087954110898662
aF0.49187380497131933
aF0.47657743785850859
aF0.47705544933078392
aF0.4789674952198853
aF0.46040076335877861
aF0.46749521988527726
aF0.46940726577437858
aF0.48183556405353728
aF0.48473282442748089
aF0.46135496183206109
aF0.46564885496183206
aF0.47418738049713194
aF0.48231357552581261
aF0.48279158699808794
aF0.46940726577437858
aF0.47084130019120457
aF0.48326959847036327
aF0.46708015267175573
aF0.47562141491395793
aF0.46749521988527726
aF0.46898854961832059
aF0.46414913957934989
aF0.46892925430210325
aF0.46517175572519082
aF0.47466539196940727
aF0.44885277246653921
aF0.46892925430210325
aF0.46367112810707456
aF0.46326335877862596
aF0.4751434034416826
aF0.47562141491395793
aF0.4751434034416826
aF0.48135755258126195
aF0.47185114503816794
aF0.46708015267175573
aF0.46510516252390055
aF0.45458891013384323
aF0.47084130019120457
aF0.46892925430210325
aF0.46994274809160308
aF0.47900763358778625
aF0.4837476099426386
aF0.47089694656488551
aF0.4661259541984733
aF0.47370936902485661
aF0.46128107074569791
aF0.48326959847036327
aF0.47328244274809161
aF0.4541108986615679
aF0.46414913957934989
aF0.48998091603053434
aF0.48326959847036327
aF0.46558317399617588
aF0.46564885496183206
aF0.46462715105162522
aF0.46749521988527726
aF0.44359464627151052
aF0.46319311663479923
aF0.46803435114503816
aF0.46845124282982792
aF0.46660305343511449
aF0.46032504780114725
aF0.4665391969407266
aF0.48043893129770993
aF0.47418738049713194
aF0.48087954110898662
aF0.46175908221797324
aF0.47657743785850859
aF0.46940726577437858
aF0.45793499043977054
aF0.44550669216061184
aF0.48900573613766729
aF0.47753346080305925
aF0.46892925430210325
aF0.47179732313575523
aF0.46510516252390055
aF0.45745697896749521
aF0.47466539196940727
aF0.47705544933078392
aF0.46175908221797324
aF0.4818702290076336
aF0.45467557251908397
aF0.47805343511450382
aF0.48900573613766729
aF0.4713193116634799
aF0.47084130019120457
aF0.46988527724665391
aF0.48565965583173998
aF0.4661259541984733
aF0.45315487571701724
aF0.46940726577437858
aF0.48087954110898662
aF0.46223709369024857
aF0.47323135755258128
aF0.4665391969407266
aF0.46988527724665391
aF0.46414913957934989
aF0.49187380497131933
aF0.47275334608030595
aF0.47227533460803062
aF0.49856596558317401
aF0.47084130019120457
aF0.47801147227533458
aF0.47370936902485661
aF0.46080305927342258
aF0.46701720841300193
aF0.4661259541984733
aF0.46797323135755259
aF0.46946564885496184
aF0.46414913957934989
aF0.47179732313575523
aF0.48087954110898662
aF0.47992351816443596
aF0.4818702290076336
aF0.47179732313575523
aF0.46845124282982792
aF0.49378585086042065
aF0.47418738049713194
aF0.48135755258126195
aF0.46517175572519082
aF0.46845124282982792
aF0.48520992366412213
aF0.48279158699808794
aF0.47805343511450382
aF0.47562141491395793
aF0.47562141491395793
aF0.47323135755258128
aF0.47179732313575523
aF0.47041984732824427
aF0.47801147227533458
aF0.46797323135755259
aF0.47328244274809161
aF0.48377862595419846
aF0.46558317399617588
aF0.4665391969407266
aF0.45602294455066922
aF0.49093511450381677
aF0.46223709369024857
aF0.46803435114503816
aF0.47466539196940727
aF0.4661259541984733
aF0.46940726577437858
aF0.47705544933078392
aF0.45315487571701724
aF0.48040152963671129
aF0.4588910133843212
aF0.46032504780114725
aF0.48087954110898662
aF0.47185114503816794
aF0.46701720841300193
aF0.4665391969407266
aF0.48661567877629064
aF0.47662213740458015
aF0.46414913957934989
aF0.46845124282982792
aF0.46851145038167941
aF0.47705544933078392
aF0.47280534351145037
aF0.44980879541108987
aF0.47036328871892924
aF0.47370936902485661
aF0.48043893129770993
aF0.47801147227533458
aF0.4875717017208413
aF0.46797323135755259
aF0.48087954110898662
aF0.46701720841300193
aF0.46749521988527726
aF0.48183556405353728
aF0.48183556405353728
aF0.48282442748091603
aF0.4713740458015267
aF0.48709369024856597
aF0.47996183206106868
aF0.46230916030534353
aF0.47227533460803062
aF0.4789674952198853
aF0.47036328871892924
aF0.45506692160611856
aF0.45124282982791586
aF0.47519083969465647
aF0.48183556405353728
aF0.47753346080305925
aF0.48279158699808794
aF0.46175908221797324
aF0.47328244274809161
aF0.46462715105162522
aF0.46946564885496184
aF0.4541108986615679
aF0.46797323135755259
aF0.47179732313575523
aF0.4713193116634799
aF0.4665391969407266
aF0.46558317399617588
aF0.45849236641221375
aF0.46223709369024857
aF0.46510516252390055
aF0.47227533460803062
aF0.4837476099426386
aF0.48087954110898662
aF0.46421755725190839
aF0.48613766730401531
aF0.46319311663479923
aF0.49282982791586999
aF0.46898854961832059
aF0.45076481835564053
aF0.47609942638623326
aF0.45992366412213742
aF0.48135755258126195
aF0.45745697896749521
aF0.46940726577437858
aF0.46892925430210325
aF0.48422562141491393
aF0.46946564885496184
aF0.46462715105162522
aF0.46367112810707456
aF0.4665391969407266
aF0.44694072657743789
aF0.47900763358778625
aF0.46851145038167941
aF0.4541108986615679
aF0.47705544933078392
aF0.46558317399617588
aF0.46701720841300193
aF0.4875717017208413
aF0.46510516252390055
aF0.46994274809160308
aF0.47323135755258128
aF0.47084130019120457
aF0.46040076335877861
aF0.46994274809160308
aF0.47232824427480918
aF0.46898854961832059
aF0.46892925430210325
aF0.4751434034416826
aF0.45745697896749521
aF0.46892925430210325
aF0.46797323135755259
aF0.47992351816443596
aF0.45793499043977054
aF0.47275334608030595
aF0.47662213740458015
aF0.45745697896749521
aF0.46230916030534353
aF0.47280534351145037
aF0.46421755725190839
aF0.47041984732824427
aF0.47609942638623326
aF0.46278625954198471
aF0.44837476099426388
aF0.45745697896749521
aF0.45458891013384323
aF0.46319311663479923
aF0.45124282982791586
aF0.48852772466539196
aF0.48326959847036327
aF0.46469465648854963
aF0.47466539196940727
aF0.47848948374760997
aF0.46845124282982792
aF0.47944550669216063
aF0.47705544933078392
aF0.47323135755258128
aF0.46988527724665391
aF0.46988527724665391
aF0.48422562141491393
aF0.48330152671755727
aF0.47944550669216063
aF0.46749521988527726
aF0.45650095602294455
aF0.47227533460803062
aF0.4837476099426386
aF0.48470363288718932
aF0.46940726577437858
aF0.4789674952198853
aF0.46606118546845127
aF0.4541108986615679
aF0.46845124282982792
aF0.47562141491395793
aF0.47944550669216063
aF0.47370936902485661
aF0.46755725190839692
aF0.49713193116634802
aF0.46367112810707456
aF0.4713740458015267
aF0.46080305927342258
aF0.48854961832061067
aF0.46892925430210325
aF0.47370936902485661
aF0.47323135755258128
aF0.45841300191204587
aF0.47848948374760997
aF0.47944550669216063
aF0.45697896749521988
aF0.46940726577437858
aF0.4789674952198853
aF0.46223709369024857
aF0.47705544933078392
aF0.46701720841300193
aF0.46797323135755259
aF0.46797323135755259
aF0.45697896749521988
aF0.48470363288718932
aF0.48139312977099236
aF0.47944550669216063
aF0.45372137404580154
aF0.47466539196940727
aF0.46080305927342258
aF0.46940726577437858
aF0.45841300191204587
aF0.46462715105162522
aF0.47801147227533458
aF0.46564885496183206
aF0.4713740458015267
aF0.4588910133843212
aF0.47036328871892924
aF0.46892925430210325
aF0.46367112810707456
aF0.46175908221797324
aF0.48087954110898662
aF0.47179732313575523
aF0.46175908221797324
aF0.46845124282982792
aF0.45172084130019119
aF0.47328244274809161
aF0.48087954110898662
aF0.44598470363288717
aF0.47280534351145037
aF0.46701720841300193
aF0.45745697896749521
aF0.47853053435114506
aF0.45363288718929257
aF0.46797323135755259
aF0.46749521988527726
aF0.45936902485659653
aF0.48087954110898662
aF0.46367112810707456
aF0.45650095602294455
aF0.47801147227533458
aF0.45602294455066922
aF0.46940726577437858
aF0.47328244274809161
aF0.47041984732824427
aF0.45554493307839389
aF0.47041984732824427
aF0.48804971319311663
aF0.44263862332695986
aF0.45793499043977054
aF0.48422562141491393
aF0.47275334608030595
aF0.46558317399617588
aF0.47370936902485661
aF0.45363288718929257
aF0.46421755725190839
aF0.45697896749521988
aF0.4665391969407266
aF0.45849236641221375
aF0.47185114503816794
aF0.47753346080305925
aF0.46988527724665391
aF0.47848948374760997
aF0.45506692160611856
aF0.46701720841300193
aF0.46040076335877861
aF0.47566793893129772
aF0.45363288718929257
aF0.46278625954198471
aF0.46278625954198471
aF0.47418738049713194
aF0.47036328871892924
aF0.46278625954198471
aF0.46940726577437858
aF0.4751434034416826
aF0.46845124282982792
aF0.47944550669216063
aF0.47753346080305925
aF0.47466539196940727
aF0.45267686424474185
aF0.45658396946564883
aF0.49474187380497131
aF0.46128107074569791
aF0.46606118546845127
aF0.46032504780114725
aF0.47370936902485661
aF0.46175908221797324
aF0.46278625954198471
aF0.46946564885496184
aF0.47562141491395793
aF0.47853053435114506
aF0.47466539196940727
aF0.45124282982791586
aF0.44311663479923519
aF0.45697896749521988
aF0.46175908221797324
aF0.47848948374760997
aF0.48661567877629064
aF0.46749521988527726
aF0.45506692160611856
aF0.4713193116634799
aF0.46749521988527726
aF0.47179732313575523
aF0.47709923664122139
aF0.47992351816443596
aF0.47084130019120457
aF0.46223709369024857
aF0.47227533460803062
aF0.46510516252390055
aF0.4661259541984733
aF0.4665391969407266
aF0.46898854961832059
aF0.46749521988527726
aF0.48091603053435117
aF0.47418738049713194
aF0.46469465648854963
aF0.4665391969407266
aF0.46510516252390055
aF0.46606118546845127
aF0.45363288718929257
aF0.4751434034416826
aF0.47370936902485661
aF0.47614503816793891
aF0.47179732313575523
aF0.46510516252390055
aF0.48087954110898662
aF0.44980879541108987
aF0.46183206106870228
aF0.45841300191204587
aF0.46421755725190839
aF0.44751908396946566
aF0.46946564885496184
aF0.46319311663479923
aF0.48422562141491393
aF0.48470363288718932
aF0.46940726577437858
aF0.47370936902485661
aF0.45602294455066922
aF0.48040152963671129
aF0.4588910133843212
aF0.46558317399617588
aF0.4713740458015267
aF0.48040152963671129
aF0.4789674952198853
aF0.49330783938814532
aF0.47036328871892924
aF0.48613766730401531
aF0.47280534351145037
aF0.45458891013384323
aF0.48950381679389315
aF0.46175908221797324
aF0.47609942638623326
aF0.45793499043977054
aF0.49713740458015265
aF0.47944550669216063
aF0.48473282442748089
aF0.46755725190839692
aF0.47232824427480918
aF0.4713193116634799
aF0.45753816793893132
aF0.491395793499044
aF0.47705544933078392
aF0.46510516252390055
aF0.47323135755258128
aF0.47992351816443596
aF0.47466539196940727
aF0.46183206106870228
aF0.48231357552581261
aF0.46797323135755259
aF0.47328244274809161
aF0.47944550669216063
aF0.48900573613766729
aF0.46558317399617588
aF0.47657743785850859
aF0.45745697896749521
aF0.48135755258126195
aF0.47562141491395793
aF0.47036328871892924
aF0.4751434034416826
aF0.47900763358778625
aF0.46797323135755259
aF0.4713193116634799
aF0.46940726577437858
aF0.47328244274809161
aF0.4713193116634799
aF0.46517175572519082
aF0.47418738049713194
aF0.46892925430210325
aF0.48565965583173998
aF0.47753346080305925
aF0.46749521988527726
aF0.47179732313575523
aF0.46558317399617588
aF0.47657743785850859
aF0.48613766730401531
aF0.47609942638623326
aF0.47900763358778625
aF0.47519083969465647
aF0.45515267175572521
aF0.49378585086042065
aF0.48422562141491393
aF0.46558317399617588
aF0.45984703632887192
aF0.46367112810707456
aF0.46892925430210325
aF0.48183556405353728
aF0.47566793893129772
aF0.46032504780114725
aF0.46845124282982792
aF0.47753346080305925
aF0.45992366412213742
aF0.47944550669216063
aF0.45172084130019119
aF0.46080305927342258
aF0.48804971319311663
aF0.46749521988527726
aF0.47801147227533458
aF0.47709923664122139
aF0.47370936902485661
aF0.46940726577437858
aF0.47036328871892924
aF0.45745697896749521
aF0.46183206106870228
aF0.47471374045801529
aF0.46797323135755259
aF0.46940726577437858
aF0.48759541984732824
aF0.46558317399617588
aF0.47466539196940727
aF0.46128107074569791
aF0.48282442748091603
aF0.46510516252390055
aF0.46940726577437858
aF0.48326959847036327
aF0.46797323135755259
aF0.49378585086042065
aF0.46183206106870228
aF0.46462715105162522
aF0.47609942638623326
aF0.47418738049713194
aF0.4588910133843212
aF0.47323135755258128
aF0.47657743785850859
aF0.47944550669216063
aF0.46749521988527726
aF0.47370936902485661
aF0.46797323135755259
aF0.46462715105162522
aF0.4627151051625239
aF0.48135755258126195
aF0.44550669216061184
aF0.47227533460803062
aF0.4541108986615679
aF0.46367112810707456
aF0.46749521988527726
aF0.47232824427480918
aF0.48711832061068705
aF0.45315487571701724
aF0.4627151051625239
aF0.46988527724665391
aF0.47418738049713194
aF0.47084130019120457
aF0.45506692160611856
aF0.46367112810707456
aF0.4751434034416826
aF0.46414913957934989
aF0.48470363288718932
aF0.47705544933078392
aF0.46606118546845127
aF0.46845124282982792
aF0.47227533460803062
aF0.48326959847036327
aF0.45793499043977054
aF0.45841300191204587
aF0.45419847328244273
aF0.47232824427480918
aF0.46223709369024857
aF0.46462715105162522
aF0.45650095602294455
aF0.46087786259541985
aF0.45697896749521988
aF0.47328244274809161
aF0.46660305343511449
aF0.47992351816443596
aF0.46755725190839692
aF0.45841300191204587
aF0.4789674952198853
aF0.46892925430210325
aF0.46749521988527726
aF0.46040076335877861
aF0.4588910133843212
aF0.46940726577437858
aF0.45315487571701724
aF0.45467557251908397
aF0.45467557251908397
aF0.47662213740458015
aF0.46708015267175573
aF0.47227533460803062
aF0.47900763358778625
aF0.47562141491395793
aF0.4588910133843212
aF0.48613766730401531
aF0.47801147227533458
aF0.47466539196940727
aF0.47179732313575523
aF0.46660305343511449
aF0.46278625954198471
aF0.46708015267175573
aF0.47084130019120457
aF0.46223709369024857
aF0.46988527724665391
aF0.47562141491395793
aF0.4837476099426386
aF0.45697896749521988
aF0.47996183206106868
aF0.46414913957934989
aF0.47179732313575523
aF0.47323135755258128
aF0.4556297709923664
aF0.45458891013384323
aF0.4627151051625239
aF0.46032504780114725
aF0.46032504780114725
aF0.47227533460803062
aF0.4837476099426386
aF0.47036328871892924
aF0.48087954110898662
aF0.45515267175572521
aF0.44274809160305345
aF0.4637404580152672
aF0.46278625954198471
aF0.46749521988527726
aF0.46223709369024857
aF0.46128107074569791
aF0.46749521988527726
aF0.47418738049713194
aF0.46462715105162522
aF0.46892925430210325
aF0.45984703632887192
aF0.46851145038167941
aF0.47992351816443596
aF0.47036328871892924
aF0.47036328871892924
aF0.46326335877862596
aF0.46175908221797324
aF0.47753346080305925
aF0.46367112810707456
aF0.47466539196940727
aF0.46223709369024857
aF0.46421755725190839
aF0.46128107074569791
aF0.4713193116634799
aF0.48087954110898662
aF0.50429389312977102
aF0.46701720841300193
aF0.47275334608030595
aF0.46421755725190839
aF0.46994274809160308
aF0.4789674952198853
aF0.47992351816443596
aF0.47423664122137404
aF0.46797323135755259
aF0.46326335877862596
aF0.46851145038167941
aF0.47609942638623326
aF0.46128107074569791
aF0.45984703632887192
aF0.47944550669216063
aF0.47466539196940727
aF0.47185114503816794
aF0.48087954110898662
aF0.47657743785850859
aF0.46940726577437858
aF0.46558317399617588
aF0.47609942638623326
aF0.4789674952198853
aF0.46994274809160308
aF0.46660305343511449
aF0.45315487571701724
aF0.47275334608030595
aF0.47323135755258128
aF0.46701720841300193
aF0.48326959847036327
aF0.48709369024856597
aF0.46755725190839692
aF0.46032504780114725
aF0.46223709369024857
aF0.48139312977099236
aF0.47089694656488551
aF0.46510516252390055
aF0.47036328871892924
aF0.46367112810707456
aF0.4751434034416826
aF0.47275334608030595
aF0.47519083969465647
aF0.46797323135755259
aF0.47328244274809161
aF0.46230916030534353
aF0.47227533460803062
aF0.45896946564885494
aF0.48231357552581261
aF0.48852772466539196
aF0.4502868068833652
aF0.46462715105162522
aF0.4713740458015267
aF0.45172084130019119
aF0.46892925430210325
aF0.45841300191204587
aF0.45944656488549618
aF0.46223709369024857
aF0.48470363288718932
aF0.46558317399617588
aF0.47280534351145037
aF0.48518164435946465
aF0.46367112810707456
aF0.46564885496183206
aF0.45753816793893132
aF0.47036328871892924
aF0.48518164435946465
aF0.47566793893129772
aF0.48279158699808794
aF0.46797323135755259
aF0.4837476099426386
aF0.48330152671755727
aF0.46988527724665391
aF0.47848948374760997
aF0.46319311663479923
aF0.48326959847036327
aF0.4789674952198853
aF0.46701720841300193
aF0.46749521988527726
aF0.4502868068833652
aF0.46175908221797324
aF0.46462715105162522
aF0.48422562141491393
aF0.46988527724665391
aF0.46367112810707456
aF0.47227533460803062
aF0.47801147227533458
aF0.44980879541108987
aF0.45697896749521988
aF0.47657743785850859
aF0.4713193116634799
aF0.46898854961832059
aF0.46892925430210325
aF0.46558317399617588
aF0.45133587786259544
aF0.4665391969407266
aF0.47614503816793891
aF0.46797323135755259
aF0.46421755725190839
aF0.46940726577437858
aF0.4665391969407266
aF0.46558317399617588
aF0.46510516252390055
aF0.47801147227533458
aF0.47280534351145037
aF0.48231357552581261
aF0.46462715105162522
aF0.46797323135755259
aF0.46606118546845127
aF0.47275334608030595
aF0.44741873804971322
aF0.47227533460803062
aF0.49426386233269598
aF0.4637404580152672
aF0.48613766730401531
aF0.46845124282982792
aF0.4713193116634799
aF0.47801147227533458
aF0.46755725190839692
aF0.46892925430210325
aF0.47657743785850859
aF0.45172084130019119
aF0.47614503816793891
aF0.47179732313575523
aF0.45936902485659653
aF0.47370936902485661
aF0.48087954110898662
aF0.46940726577437858
aF0.4665391969407266
aF0.46032504780114725
aF0.48183556405353728
aF0.4665391969407266
aF0.44885277246653921
aF0.47753346080305925
aF0.46080305927342258
aF0.45219885277246652
aF0.46940726577437858
aF0.46708015267175573
aF0.46135496183206109
aF0.46278625954198471
aF0.47185114503816794
aF0.47232824427480918
aF0.48661567877629064
aF0.46517175572519082
aF0.48613766730401531
aF0.45315487571701724
aF0.46564885496183206
aF0.46749521988527726
aF0.48135755258126195
aF0.48470363288718932
aF0.46128107074569791
aF0.4588910133843212
aF0.47519083969465647
aF0.45602294455066922
aF0.44933078393881454
aF0.47041984732824427
aF0.47370936902485661
aF0.47084130019120457
aF0.47562141491395793
aF0.4637404580152672
aF0.46701720841300193
aF0.4588910133843212
aF0.45944656488549618
aF0.47084130019120457
aF0.47944550669216063
aF0.46367112810707456
aF0.46851145038167941
aF0.47609942638623326
aF0.44704198473282442
aF0.4737595419847328
aF0.45841300191204587
aF0.47992351816443596
aF0.47609942638623326
aF0.46175908221797324
aF0.47323135755258128
aF0.4665391969407266
aF0.47662213740458015
aF0.47466539196940727
aF0.47471374045801529
aF0.47614503816793891
aF0.47280534351145037
aF0.46797323135755259
aF0.44741873804971322
aF0.45992366412213742
aF0.48565965583173998
aF0.4837476099426386
aF0.4665391969407266
aF0.4464627151051625
aF0.46892925430210325
aF0.47227533460803062
aF0.46892925430210325
aF0.47805343511450382
aF0.45610687022900764
aF0.4789674952198853
aF0.4588910133843212
aF0.45076481835564053
aF0.46128107074569791
aF0.48043893129770993
aF0.46898854961832059
aF0.48091603053435117
aF0.46558317399617588
aF0.49091778202676867
aF0.46510516252390055
aF0.46940726577437858
aF0.4976145038167939
aF0.46230916030534353
aF0.46223709369024857
aF0.47705544933078392
aF0.47084130019120457
aF0.46988527724665391
aF0.47036328871892924
aF0.46892925430210325
aF0.47562141491395793
aF0.44455066921606118
aF0.46940726577437858
aF0.48139312977099236
aF0.47185114503816794
aF0.4713193116634799
aF0.48135755258126195
aF0.47084130019120457
aF0.46606118546845127
aF0.46940726577437858
aF0.46367112810707456
aF0.47753346080305925
aF0.47089694656488551
aF0.46797323135755259
aF0.48135755258126195
aF0.46558317399617588
aF0.4794847328244275
aF0.46367112810707456
aF0.45697896749521988
aF0.48804971319311663
aF0.46223709369024857
aF0.47992351816443596
aF0.45849236641221375
aF0.46940726577437858
aF0.47805343511450382
aF0.46803435114503816
aF0.47418738049713194
aF0.47996183206106868
aF0.45267686424474185
aF0.47805343511450382
aF0.4661259541984733
aF0.47848948374760997
aF0.47036328871892924
aF0.48330152671755727
aF0.47370936902485661
aF0.4627151051625239
aF0.47084130019120457
aF0.46087786259541985
aF0.46319311663479923
aF0.4818702290076336
aF0.46421755725190839
aF0.47657743785850859
aF0.4627151051625239
aF0.48135755258126195
aF0.47370936902485661
aF0.44885277246653921
aF0.45944656488549618
aF0.46701720841300193
aF0.46183206106870228
aF0.45363288718929257
aF0.46223709369024857
aF0.44980879541108987
aF0.47089694656488551
aF0.48565965583173998
aF0.45554493307839389
aF0.48422562141491393
aF0.46845124282982792
aF0.47227533460803062
aF0.47418738049713194
aF0.46946564885496184
aF0.46367112810707456
aF0.47466539196940727
aF0.48231357552581261
aF0.4713193116634799
aF0.46462715105162522
aF0.48326959847036327
aF0.4713740458015267
aF0.47944550669216063
aF0.46517175572519082
aF0.46230916030534353
aF0.47323135755258128
aF0.44789674952198855
aF0.4627151051625239
aF0.46988527724665391
aF0.46797323135755259
aF0.47185114503816794
aF0.45554493307839389
aF0.47418738049713194
aF0.47370936902485661
aF0.48711832061068705
aF0.4737595419847328
aF0.46135496183206109
aF0.4875717017208413
aF0.46940726577437858
aF0.46988527724665391
aF0.47848948374760997
aF0.47709923664122139
aF0.45841300191204587
aF0.46319311663479923
aF0.46701720841300193
aF0.48565965583173998
aF0.46223709369024857
aF0.45841300191204587
aF0.47280534351145037
aF0.47805343511450382
aF0.46606118546845127
aF0.46510516252390055
aF0.46230916030534353
aF0.47466539196940727
aF0.47471374045801529
aF0.49091778202676867
aF0.49856596558317401
aF0.47041984732824427
aF0.4751434034416826
aF0.47275334608030595
aF0.4502868068833652
aF0.47370936902485661
aF0.47853053435114506
aF0.46994274809160308
aF0.46749521988527726
aF0.46080305927342258
aF0.47848948374760997
aF0.46701720841300193
aF0.46606118546845127
aF0.4751434034416826
aF0.45936902485659653
aF0.47423664122137404
aF0.46510516252390055
aF0.46940726577437858
asS'accuracy'
p3
cnumpy.core.multiarray
scalar
p4
(cnumpy
dtype
p5
(S'f8'
p6
I0
I1
tp7
Rp8
(I3
S'<'
p9
NNNI-1
I-1
I0
tp10
bS'\x183]\x80\x18\x14\xde?'
p11
tp12
Rp13
s.