(dp0
S'both'
p1
ccopy_reg
_reconstructor
p2
(cnetworkx.classes.graph
Graph
p3
c__builtin__
object
p4
Ntp5
Rp6
(dp7
S'node'
p8
(dp9
Vtrm_4a3fd79d09a55
p10
(dp11
sVtrm_56798c5f25b0c
p12
(dp13
sVtrm_4a3fd79d0a781
p14
(dp15
sVtrm_557b493e4203a
p16
(dp17
sVtrm_557b48e337218
p18
(dp19
sVtrm_4a3fd79d09e1e
p20
(dp21
sVtrm_568427366401c
p22
(dp23
sVtrm_4a3fd79d0a775
p24
(dp25
sVtrm_4a3fd79d0b786
p26
(dp27
sVtrm_4a3fd79d0a072
p28
(dp29
sVtrm_4a3fd79d0b0a6
p30
(dp31
sVtrm_4a3fd79d0ba01
p32
(dp33
sVtrm_4a3fd79d0a891
p34
(dp35
sVtrm_558c736199abd
p36
(dp37
sVtrm_4a3fd79d0b67d
p38
(dp39
sVtrm_4a3fd79d0b0b1
p40
(dp41
sVtrm_557b476527a27
p42
(dp43
sVtrm_4a3fd79d0b607
p44
(dp45
sVtrm_557b493133416
p46
(dp47
sVtrm_4b65259eeee34
p48
(dp49
sVtrm_4a3fd79d0afda
p50
(dp51
sVtrm_4a3fd79d0a398
p52
(dp53
sVtrm_4a3fd79d09e13
p54
(dp55
sVtrm_4a3fd79d0a78d
p56
(dp57
sVtrm_4a3fd79d0a803
p58
(dp59
sVtrm_4a3fd79d0a556
p60
(dp61
sVtrm_557b4b56de455
p62
(dp63
sVtrm_5519b384d446c
p64
(dp65
sVtrm_4a3fd79d0af94
p66
(dp67
sVtrm_4a3fd79d09c28
p68
(dp69
sVtrm_4a3fd79d0ba0d
p70
(dp71
sVtrm_4a3fd79d0ab59
p72
(dp73
sVtrm_4a3fd79d0a607
p74
(dp75
sVtrm_4c3e04d656f06
p76
(dp77
sVtrm_4a3fd79d0aa76
p78
(dp79
sVtrm_4a3fd79d0aeb6
p80
(dp81
sVtrm_4a3fd79d0ab70
p82
(dp83
sVtrm_4a3fd79d0aee4
p84
(dp85
sVtrm_4a3fd79d0aaa4
p86
(dp87
sVtrm_502abeab4e1d8
p88
(dp89
sVtrm_4a3fd79d0ae70
p90
(dp91
sVtrm_557b495cdde57
p92
(dp93
sVtrm_4a3fd79d0abaa
p94
(dp95
sVtrm_4a3fd79d0a6b9
p96
(dp97
sVtrm_50297454e516b
p98
(dp99
sVtrm_4a3fd79d0b826
p100
(dp101
sVtrm_55b6b89222d4c
p102
(dp103
sVtrm_52b5f1ef4f9cc
p104
(dp105
sVtrm_558c7ae1eaf86
p106
(dp107
sVtrm_4a3fd79d0a32f
p108
(dp109
sVtrm_55ce71c47f37b
p110
(dp111
sVtrm_5521a45a397a6
p112
(dp113
sVtrm_4a3fd79d0ad1d
p114
(dp115
sVtrm_4a3fd79d0b507
p116
(dp117
sVtrm_557b4ab076338
p118
(dp119
sVtrm_559f0a5b4cd36
p120
(dp121
sVtrm_4a3fd79d0adb7
p122
(dp123
sVtrm_4a3fd79d0b1d5
p124
(dp125
sVtrm_5595bd2b92003
p126
(dp127
sVtrm_4a3fd79d0aeef
p128
(dp129
sVtrm_4ff1fc04e22e8
p130
(dp131
sVtrm_4a3fd79d097ed
p132
(dp133
sVtrm_4a3fd79d0b434
p134
(dp135
sVtrm_4a3fd79d09a10
p136
(dp137
sVtrm_5519b7525d7a2
p138
(dp139
sVtrm_4a3fd79d0b130
p140
(dp141
sVtrm_55b6b910b4b23
p142
(dp143
sVtrm_4a3fd79d0a18b
p144
(dp145
sVtrm_4a3fd79d09b04
p146
(dp147
sVtrm_558c73f3c8c6f
p148
(dp149
sVtrm_551f0f822d95e
p150
(dp151
sVtrm_4a3fd79d0a116
p152
(dp153
sVtrm_4a3fd79d09810
p154
(dp155
sVtrm_4a3fd79d0ba77
p156
(dp157
sVtrm_4a3fd79d0b0eb
p158
(dp159
sVtrm_558c7439832d9
p160
(dp161
sVtrm_4a3fd79d09ad5
p162
(dp163
sVtrm_55ef687f48a9d
p164
(dp165
sVtrm_4a3fd79d0a590
p166
(dp167
sVtrm_4a3fd79d09a61
p168
(dp169
sVtrm_4a3fd79d0a73a
p170
(dp171
sVtrm_4fb2c38960950
p172
(dp173
sVtrm_4a3fd79d0a9b9
p174
(dp175
sVtrm_5521a663cd89c
p176
(dp177
sVtrm_4a3fd79d096f0
p178
(dp179
sVtrm_4a3fd79d0b3fa
p180
(dp181
sVtrm_557b48aeb7d58
p182
(dp183
sVtrm_557b48a224b95
p184
(dp185
sVtrm_4a3fd79d0a1d1
p186
(dp187
sVtrm_4a3fd79d0b943
p188
(dp189
sVtrm_4a3fd79d09bbf
p190
(dp191
sVtrm_4a3fd79d096fc
p192
(dp193
sVtrm_4c3e05903e4bb
p194
(dp195
sVtrm_4b65edcf8bc43
p196
(dp197
sVtrm_4a3fd79d0b86e
p198
(dp199
sVtrm_4a3fd79d0b386
p200
(dp201
sVtrm_4a3fd79d0a20c
p202
(dp203
sVtrm_555cfb890d721
p204
(dp205
sVtrm_4a3fd79d09bb3
p206
(dp207
sVtrm_4a3fd79d0b311
p208
(dp209
sVtrm_4a3fd79d09cae
p210
(dp211
sVtrm_4a3fd79d0b5a7
p212
(dp213
sVtrm_4a3fd79d0afcf
p214
(dp215
sVtrm_557b4b27dfd5e
p216
(dp217
sVtrm_559f09a5cdca9
p218
(dp219
sVtrm_4a3fd79d0b160
p220
(dp221
sVtrm_5519b5f181edd
p222
(dp223
sVtrm_4a3fd79d0b548
p224
(dp225
sVtrm_4e61264db33d4
p226
(dp227
sVtrm_4a3fd79d0b440
p228
(dp229
sVtrm_5022ef7599294
p230
(dp231
sVtrm_4a3fd79d0b689
p232
(dp233
sVtrm_557b4abe521af
p234
(dp235
sVtrm_4a3fd79d0b043
p236
(dp237
sVtrm_4a3fd79d0a066
p238
(dp239
sVtrm_4a3fd79d09827
p240
(dp241
sVtrm_4fea18ec76bc9
p242
(dp243
sVtrm_558c7b14c076e
p244
(dp245
sVtrm_502c139d5ed78
p246
(dp247
sVtrm_557b4817db34d
p248
(dp249
sVtrm_4a3fd79d0b613
p250
(dp251
sVtrm_4ff36d79c26c6
p252
(dp253
sVtrm_4a3fd79d0b4a9
p254
(dp255
sVtrm_4a3fd79d0a533
p256
(dp257
sVtrm_55b6b952c1b4c
p258
(dp259
sVtrm_5678a999f1c19
p260
(dp261
sVtrm_4a3fd79d0a33b
p262
(dp263
sVtrm_5595bd6c61d78
p264
(dp265
sVtrm_4a3fd79d09855
p266
(dp267
sVtrm_4a3fd79d0a4f9
p268
(dp269
sVtrm_4a3fd79d0a833
p270
(dp271
sVtrm_557b4b9ccdc4a
p272
(dp273
sVtrm_4a3fd79d0aab0
p274
(dp275
sVtrm_4a3fd79d0a3ea
p276
(dp277
sVtrm_4feb3ffa1ab51
p278
(dp279
sVtrm_557b49206928b
p280
(dp281
sVtrm_4a3fd79d0a8fc
p282
(dp283
sVtrm_4a3fd79d09e6f
p284
(dp285
sVtrm_4a3fd79d098c9
p286
(dp287
sVtrm_4a3fd79d096be
p288
(dp289
sVtrm_557b482a7c62b
p290
(dp291
sVtrm_502ab8dd991bf
p292
(dp293
sVtrm_4a3fd79d0aa47
p294
(dp295
sVtrm_4a3fd79d0aec1
p296
(dp297
sVtrm_557b4aa070c10
p298
(dp299
sVtrm_4a3fd79d0ab65
p300
(dp301
sVtrm_4a3fd79d0b9e9
p302
(dp303
sVtrm_5679b0e9d8c20
p304
(dp305
sVtrm_557b4b3a6a34d
p306
(dp307
sVtrm_4a3fd79d0aabc
p308
(dp309
sVtrm_557b48d40d3cf
p310
(dp311
sVtrm_557b49851e991
p312
(dp313
sVtrm_557b4a81a4a17
p314
(dp315
sVtrm_557b4a7315f1b
p316
(dp317
sVtrm_4a3fd79d0b5e3
p318
(dp319
sVtrm_558c7b337080f
p320
(dp321
sVtrm_4fea04a02ce37
p322
(dp323
sVtrm_4a3fd79d0a5ed
p324
(dp325
sVtrm_5521a0512df9a
p326
(dp327
sVtrm_4a3fd79d0ac87
p328
(dp329
sVtrm_55b6b8b8e7870
p330
(dp331
sVtrm_5595bda0c5dc3
p332
(dp333
sVtrm_4a3fd79d0b08f
p334
(dp335
sVtrm_4a3fd79d0addc
p336
(dp337
sVtrm_4a3fd79d0b5ef
p338
(dp339
sVtrm_4ebfe9a465449
p340
(dp341
sVtrm_4a3fd79d0b53c
p342
(dp343
sVtrm_4fb3f4d58aeb0
p344
(dp345
sVtrm_4a3fd79d0b406
p346
(dp347
sVtrm_4a3fd79d0a695
p348
(dp349
sVtrm_500d8bcf5f29a
p350
(dp351
sVtrm_4a3fd79d0b014
p352
(dp353
sVtrm_4a3fd79d09de4
p354
(dp355
sVtrm_55b6b92c1fd76
p356
(dp357
sVtrm_4a3fd79d0b125
p358
(dp359
sVtrm_4ffdc96dc85b7
p360
(dp361
sVtrm_4feb3f8c551cb
p362
(dp363
sVtrm_4a3fd79d0b020
p364
(dp365
sVtrm_4a3fd79d0b083
p366
(dp367
sVtrm_5159cb12a0f92
p368
(dp369
sVtrm_500d8c8fcc520
p370
(dp371
sVtrm_5154b2f947fe9
p372
(dp373
sVtrm_4a3fd79d09b79
p374
(dp375
sVtrm_5519bb7767d98
p376
(dp377
sVtrm_4a3fd79d0a17f
p378
(dp379
sVtrm_5595be14a57c5
p380
(dp381
sVtrm_4a3fd79d0b87a
p382
(dp383
sVtrm_4a3fd79d097f9
p384
(dp385
sVtrm_4a3fd79d0b9ad
p386
(dp387
sVtrm_5595bd89d77c6
p388
(dp389
sVtrm_4a3fd79d0ba60
p390
(dp391
sVtrm_4a3fd79d0b0c8
p392
(dp393
sVtrm_5595bde6b2e95
p394
(dp395
sVtrm_558c73b3663a6
p396
(dp397
sVtrm_4a3fd79d09ae1
p398
(dp399
sVtrm_557b494ca540d
p400
(dp401
sVtrm_557b47abe9a34
p402
(dp403
sVtrm_558c7b5228ed4
p404
(dp405
sVtrm_4a3fd79d0b18f
p406
(dp407
sVtrm_4a3fd79d0a51c
p408
(dp409
sVtrm_4a3fd79d09a49
p410
(dp411
sVtrm_4a3fd79d0a275
p412
(dp413
sVtrm_4a3fd79d09e35
p414
(dp415
sVtrm_4a3fd79d096e3
p416
(dp417
sVtrm_4a3fd79d0a281
p418
(dp419
sVtrm_4a3fd79d0a87a
p420
(dp421
sVtrm_4a3fd79d09aed
p422
(dp423
sVtrm_4e416f1373936
p424
(dp425
sVtrm_558c74156b7ee
p426
(dp427
sVtrm_4a3fd79d0affd
p428
(dp429
sVtrm_4a3fd79d0b9a1
p430
(dp431
sVtrm_4a3fd79d0a05b
p432
(dp433
sVtrm_4a3fd79d0ae87
p434
(dp435
sVtrm_4a3fd79d0ba6c
p436
(dp437
sVtrm_4a3fd79d0b972
p438
(dp439
sVtrm_5029751d118c4
p440
(dp441
sVtrm_4f4511e519b53
p442
(dp443
sVtrm_4a3fd79d0b306
p444
(dp445
sVtrm_4a3fd79d0b967
p446
(dp447
sVtrm_557b471bc6cd8
p448
(dp449
sVtrm_4a3fd79d09e87
p450
(dp451
sVtrm_4a3fd79d0b37a
p452
(dp453
sVtrm_4a3fd79d0a30c
p454
(dp455
sVtrm_559f0a129c136
p456
(dp457
sVtrm_4a3fd79d0b3ef
p458
(dp459
sVtrm_4a3fd79d0b279
p460
(dp461
sVtrm_4a3fd79d0aa0c
p462
(dp463
sVtrm_5521a3da10349
p464
(dp465
sVtrm_557b4993a0fdd
p466
(dp467
sVtrm_4a3fd79d0a7d4
p468
(dp469
sVtrm_4a3fd79d0b457
p470
(dp471
sVtrm_4a3fd79d0a1ae
p472
(dp473
sVtrm_4a3fd79d0b756
p474
(dp475
sVtrm_4a3fd79d09a8f
p476
(dp477
sVtrm_4b45f467bf238
p478
(dp479
sVtrm_4a3fd79d0ba25
p480
(dp481
sVtrm_4a3fd79d0a483
p482
(dp483
sVtrm_55c298bbe56d5
p484
(dp485
sVtrm_4a3fd79d09aa7
p486
(dp487
sVtrm_4a3fd79d0af7d
p488
(dp489
sVtrm_4a3fd79d0b02c
p490
(dp491
sVtrm_4a3fd79d0b938
p492
(dp493
sVtrm_4fea25630ffb5
p494
(dp495
sVtrm_557b4b7176394
p496
(dp497
sVtrm_557b4af7cc1cb
p498
(dp499
sVtrm_5159beaf80413
p500
(dp501
sVtrm_4e89aebaa311d
p502
(dp503
sVtrm_4a3fd79d09a3d
p504
(dp505
sVtrm_4a3fd79d0a504
p506
(dp507
sVtrm_4a3fd79d0ab7c
p508
(dp509
sVtrm_4a3fd79d09af8
p510
(dp511
sVtrm_4a3fd79d0a431
p512
(dp513
sVtrm_4a3fd79d0a48e
p514
(dp515
sVtrm_4a3fd79d0ba54
p516
(dp517
sVtrm_4a3fd79d0aac8
p518
(dp519
sVtrm_4a3fd79d0af71
p520
(dp521
sVtrm_4a3fd79d09707
p522
(dp523
sVtrm_5519ba1746e95
p524
(dp525
sVtrm_56006cb5a61ac
p526
(dp527
sVtrm_4a3fd79d09849
p528
(dp529
sVtrm_55ef3ba010121
p530
(dp531
sVtrm_5521a2aa5b127
p532
(dp533
sVtrm_4b185801de7a1
p534
(dp535
sVtrm_4a3fd79d09a84
p536
(dp537
sVtrm_5159c94667677
p538
(dp539
sVtrm_55ef153d47bc0
p540
(dp541
sVtrm_4a3fd79d098b2
p542
(dp543
sVtrm_5521a5f310604
p544
(dp545
sVtrm_4ee8facd77dfc
p546
(dp547
sVtrm_4a3fd79d0ad12
p548
(dp549
sVtrm_4a3fd79d0a1f4
p550
(dp551
sVtrm_4a3fd79d09be2
p552
(dp553
sVtrm_4a3fd79d0b89e
p554
(dp555
sVtrm_4a3fd79d0ac9e
p556
(dp557
sVtrm_4a3fd79d098bd
p558
(dp559
sVtrm_557b4855a12b4
p560
(dp561
sVtrm_557b4904ee26d
p562
(dp563
sVtrm_5521737cd6450
p564
(dp565
sVtrm_5159c80c1dd24
p566
(dp567
sVtrm_558c73324a6ca
p568
(dp569
sVtrm_4a3fd79d0b238
p570
(dp571
sVtrm_558c7b707f606
p572
(dp573
sVtrm_4a3fd79d0ac93
p574
(dp575
sVtrm_4a3fd79d0b892
p576
(dp577
sVtrm_4a3fd79d09bee
p578
(dp579
sVtrm_4a3fd79d0b1f7
p580
(dp581
sVtrm_55b6b9d7c9435
p582
(dp583
sVtrm_4b65edcf9129a
p584
(dp585
sVtrm_4a3fd79d09b9c
p586
(dp587
sVtrm_557b4891e9265
p588
(dp589
sVtrm_523e053844495
p590
(dp591
sVtrm_557b49ad14adf
p592
(dp593
sVtrm_4a3fd79d0b8e5
p594
(dp595
sVtrm_4a3fd79d0b9dd
p596
(dp597
sVtrm_4aae62e4ad209
p598
(dp599
sVtrm_4e5faabfe8ce3
p600
(dp601
sVtrm_55b6b8e291dba
p602
(dp603
sVtrm_4a3fd79d0a769
p604
(dp605
sVtrm_4a3fd79d0b46f
p606
(dp607
sVtrm_4a3fd79d0b792
p608
(dp609
sVtrm_557b4b7e68727
p610
(dp611
sVtrm_567982752ff4a
p612
(dp613
sVtrm_4a3fd79d0a613
p614
(dp615
sVtrm_4fe39e4388409
p616
(dp617
sVtrm_4a3fd79d0b487
p618
(dp619
sVtrm_559f0986182cc
p620
(dp621
sVtrm_4a3fd79d0a966
p622
(dp623
sVtrm_4a3fd79d0a04f
p624
(dp625
sVtrm_557b491318742
p626
(dp627
sVtrm_565bce2791089
p628
(dp629
sVtrm_557b4b47d994a
p630
(dp631
sVtrm_557b478ce1c24
p632
(dp633
sVtrm_502bdc6bdaa2b
p634
(dp635
sVtrm_4a3fd79d0b665
p636
(dp637
sVtrm_4a3fd79d0a460
p638
(dp639
sVtrm_4a3fd79d0b09a
p640
(dp641
sVtrm_4a3fd79d0a044
p642
(dp643
sVtrm_4a3fd79d0ba19
p644
(dp645
sVtrm_557b4b154e0d9
p646
(dp647
sVtrm_557b4844ca14d
p648
(dp649
sVtrm_4e5badf095692
p650
(dp651
sVtrm_557b4acdee820
p652
(dp653
sVtrm_4a3fd79d0a862
p654
(dp655
sVtrm_4a3fd79d09ab2
p656
(dp657
sVtrm_4a3fd79d0a196
p658
(dp659
sVtrm_4a3fd79d0aa6a
p660
(dp661
sVtrm_4a3fd79d0ae93
p662
(dp663
sVtrm_4a3fd79d0a269
p664
(dp665
sVtrm_4a3fd79d09e07
p666
(dp667
sVtrm_55ef273a77a86
p668
(dp669
sVtrm_4a3fd79d09902
p670
(dp671
sVtrm_502ad54c11389
p672
(dp673
sVtrm_4a3fd79d0aad4
p674
(dp675
sVtrm_4a3fd79d0b6dd
p676
(dp677
sVtrm_4a3fd79d09e9e
p678
(dp679
sVtrm_4a3fd79d0ad4c
p680
(dp681
sVtrm_4fea017794d1d
p682
(dp683
sVtrm_4a3fd79d09c11
p684
(dp685
sVtrm_4a3fd79d0b4c1
p686
(dp687
sVtrm_4a3fd79d0990e
p688
(dp689
sVtrm_51a690a7492eb
p690
(dp691
sVtrm_4a3fd79d098a6
p692
(dp693
sVtrm_4a3fd79d09c1c
p694
(dp695
sVtrm_4a3fd79d0b4cd
p696
(dp697
sVtrm_4a3fd79d0aed8
p698
(dp699
sVtrm_4a3fd79d0a81b
p700
(dp701
sVtrm_4a3fd79d0b1b2
p702
(dp703
sVtrm_4fe8edc62f613
p704
(dp705
sVtrm_4a3fd79d0b6d1
p706
(dp707
sVtrm_4a3fd79d0b0f7
p708
(dp709
sVtrm_500d8aef38f2c
p710
(dp711
sVtrm_557b477b4a15f
p712
(dp713
sVtrm_4a3fd79d0b64e
p714
(dp715
sVtrm_4a3fd79d0b58f
p716
(dp717
sVtrm_557b4aeaeb744
p718
(dp719
sVtrm_5534111a8bc96
p720
(dp721
sVtrm_4a3fd79d0a7ec
p722
(dp723
sVtrm_4a3fd79d0adc3
p724
(dp725
sVtrm_4a3fd79d0b1e0
p726
(dp727
sVtrm_4a3fd79d0ac61
p728
(dp729
sVtrm_4a3fd79d0abb6
p730
(dp731
sVtrm_4a3fd79d0ba30
p732
(dp733
sVtrm_4a3fd79d0b8f0
p734
(dp735
sVtrm_4a3fd79d0a72e
p736
(dp737
sVtrm_4a3fd79d0b583
p738
(dp739
sVtrm_5524572b66764
p740
(dp741
sVtrm_4a3fd79d09786
p742
(dp743
sVtrm_557b4b652cbec
p744
(dp745
sVtrm_4a3fd79d0a7e0
p746
(dp747
sVtrm_5519b80525e89
p748
(dp749
sVtrm_4e6127bd91be9
p750
(dp751
sVtrm_4a3fd79d0a038
p752
(dp753
sVtrm_4a3fd79d0b8fc
p754
(dp755
sVtrm_4a3fd79d0a723
p756
(dp757
sVtrm_551f0d8c69a13
p758
(dp759
sVtrm_4a3fd79d0adcf
p760
(dp761
sVtrm_55b6b9a666604
p762
(dp763
sVtrm_4a3fd79d0ad94
p764
(dp765
sVtrm_4a3fd79d0aa2f
p766
(dp767
sVtrm_4a3fd79d0b920
p768
(dp769
sVtrm_55ce70b20186b
p770
(dp771
sVtrm_4e31e6dca01ca
p772
(dp773
sVtrm_55ef1fd2bc418
p774
(dp775
sVtrm_4a3fd79d0989a
p776
(dp777
sVtrm_557b4b05ae470
p778
(dp779
sVtrm_4a3fd79d097d6
p780
(dp781
sVtrm_4b7c270940f9d
p782
(dp783
sVtrm_4a3fd79d0995e
p784
(dp785
sVtrm_553967f006b70
p786
(dp787
sVtrm_4a3fd79d0ba48
p788
(dp789
sVtrm_4a3fd79d0b95b
p790
(dp791
sVtrm_4a3fd79d0af66
p792
(dp793
sVtrm_4a3fd79d09713
p794
(dp795
sVtrm_5521a6bc4db33
p796
(dp797
sVtrm_557b4bb7cf05b
p798
(dp799
sVtrm_55c6f87595b39
p800
(dp801
sVtrm_4a3fd79d0b2b4
p802
(dp803
sVtrm_557b4b8cd05ca
p804
(dp805
sVtrm_4a3fd79d09b10
p806
(dp807
sVtrm_552185f5cda66
p808
(dp809
sVtrm_55c6f58e77fbe
p810
(dp811
sVtrm_4a3fd79d0a0a1
p812
(dp813
sVtrm_4a3fd79d09953
p814
(dp815
sVtrm_4a3fd79d09c5b
p816
(dp817
sVtrm_4feb44e5ae25b
p818
(dp819
sVtrm_4a3fd79d0b518
p820
(dp821
sVtrm_4a3fd79d09b1c
p822
(dp823
sVtrm_4a3fd79d0b802
p824
(dp825
sVtrm_55b6b96e77df6
p826
(dp827
sVtrm_4a3fd79d0b4d8
p828
(dp829
sVtrm_5519b92bde7dc
p830
(dp831
sVtrm_4b6525253c63f
p832
(dp833
sVtrm_4a3fd79d0b392
p834
(dp835
sVtrm_551f11bb8f6a8
p836
(dp837
sVtrm_4a3fd79d0ac30
p838
(dp839
sVtrm_5521a51034353
p840
(dp841
sVtrm_4e5506161998c
p842
(dp843
sVtrm_4a3fd79d0b49e
p844
(dp845
sVtrm_4a3fd79d0b8cd
p846
(dp847
sVtrm_4a3fd79d0b39d
p848
(dp849
sVtrm_4a3fd79d0b4b5
p850
(dp851
sVtrm_5521a7a1376ed
p852
(dp853
sVtrm_4a3fd79d0b077
p854
(dp855
sVtrm_502c343d20523
p856
(dp857
sVtrm_55b6b98b88f45
p858
(dp859
sVtrm_557b499fac085
p860
(dp861
sVtrm_4a3fd79d0b8c1
p862
(dp863
sVtrm_4a3fd79d0ad29
p864
(dp865
sVtrm_4a3fd79d0ab4d
p866
(dp867
sVtrm_4a3fd79d0ae3d
p868
(dp869
sVtrm_557b474e2b578
p870
(dp871
ssS'node_dict_factory'
p872
c__builtin__
dict
p873
sS'edge_attr_dict_factory'
p874
g873
sS'edge'
p875
(dp876
g10
(dp877
sg12
(dp878
sg14
(dp879
g604
(dp880
ssg16
(dp881
sg18
(dp882
sg20
(dp883
sg22
(dp884
sg24
(dp885
g576
(dp886
ssg26
(dp887
sg28
(dp888
sg30
(dp889
sg32
(dp890
g790
(dp891
sg446
(dp892
ssg34
(dp893
Vtrm_4a3fd79d0b967
p894
(dp895
sVtrm_4a3fd79d0b95b
p896
(dp897
sg488
(dp898
sg212
(dp899
sg124
(dp900
ssg36
(dp901
sg38
(dp902
sg40
(dp903
sg42
(dp904
sg44
(dp905
sg46
(dp906
sg48
(dp907
sg50
(dp908
sg52
(dp909
sg54
(dp910
sg56
(dp911
sg58
(dp912
sg60
(dp913
sg62
(dp914
sg64
(dp915
sg66
(dp916
sg68
(dp917
g770
(dp918
sg428
(dp919
ssg70
(dp920
g212
(dp921
sg508
(dp922
ssg72
(dp923
sg74
(dp924
sg76
(dp925
g598
(dp926
sg212
(dp927
ssg78
(dp928
sg80
(dp929
g824
(dp930
ssg82
(dp931
sg84
(dp932
sg86
(dp933
sg88
(dp934
sg90
(dp935
sg92
(dp936
sg94
(dp937
sg96
(dp938
sg98
(dp939
sg100
(dp940
sg102
(dp941
sg104
(dp942
sg106
(dp943
g630
(dp944
ssg108
(dp945
sg110
(dp946
sg112
(dp947
sg114
(dp948
sg116
(dp949
sg118
(dp950
sg120
(dp951
sg122
(dp952
sg124
(dp953
g34
g900
ssg126
(dp954
sg128
(dp955
sg130
(dp956
Vtrm_4a3fd79d0a1f4
p957
(dp958
sg414
(dp959
ssg132
(dp960
sg134
(dp961
sg136
(dp962
sg138
(dp963
g770
(dp964
ssg140
(dp965
sg142
(dp966
sg144
(dp967
sg146
(dp968
sg148
(dp969
sg150
(dp970
sg152
(dp971
Vtrm_4a3fd79d09902
p972
(dp973
ssg154
(dp974
sg156
(dp975
sg158
(dp976
sg160
(dp977
Vtrm_557b4b9ccdc4a
p978
(dp979
ssg162
(dp980
sg164
(dp981
sg166
(dp982
sg168
(dp983
sg170
(dp984
sg172
(dp985
sg174
(dp986
sg176
(dp987
sg178
(dp988
sg180
(dp989
sg182
(dp990
sg184
(dp991
sg186
(dp992
sg188
(dp993
sg190
(dp994
sg192
(dp995
sg194
(dp996
g598
(dp997
sg212
(dp998
ssg196
(dp999
sg198
(dp1000
sg200
(dp1001
sg202
(dp1002
sg204
(dp1003
sg206
(dp1004
sg208
(dp1005
sg210
(dp1006
sg212
(dp1007
g644
(dp1008
sg194
g998
sg758
(dp1009
sg582
(dp1010
sg76
g927
sVtrm_4a3fd79d0a038
p1011
(dp1012
sg34
g899
sg70
g921
sg762
(dp1013
ssg214
(dp1014
sg216
(dp1015
sg218
(dp1016
sg220
(dp1017
g508
(dp1018
ssg222
(dp1019
sg224
(dp1020
g422
(dp1021
ssg226
(dp1022
sg228
(dp1023
sg230
(dp1024
sg232
(dp1025
sg234
(dp1026
sg236
(dp1027
g972
(dp1028
ssg238
(dp1029
sg240
(dp1030
sg242
(dp1031
sg244
(dp1032
sg246
(dp1033
sg248
(dp1034
sg250
(dp1035
g614
(dp1036
ssg252
(dp1037
sg254
(dp1038
sg256
(dp1039
sg258
(dp1040
sg260
(dp1041
sg262
(dp1042
sg264
(dp1043
sg266
(dp1044
sg268
(dp1045
sg270
(dp1046
g854
(dp1047
ssg272
(dp1048
g160
g979
ssg274
(dp1049
g660
(dp1050
sg484
(dp1051
ssg276
(dp1052
sg278
(dp1053
sg280
(dp1054
sg282
(dp1055
sg284
(dp1056
sg286
(dp1057
sg288
(dp1058
sg290
(dp1059
sg292
(dp1060
g850
(dp1061
sVtrm_4a3fd79d0b9ad
p1062
(dp1063
ssg294
(dp1064
sg296
(dp1065
sg298
(dp1066
sg300
(dp1067
sg302
(dp1068
sg304
(dp1069
sg306
(dp1070
sg308
(dp1071
sg310
(dp1072
sg312
(dp1073
g598
(dp1074
ssg314
(dp1075
Vtrm_4a3fd79d09849
p1076
(dp1077
ssg316
(dp1078
sg318
(dp1079
sg320
(dp1080
sg322
(dp1081
sg324
(dp1082
sg326
(dp1083
sg328
(dp1084
sg330
(dp1085
sg332
(dp1086
sg334
(dp1087
sg336
(dp1088
sg338
(dp1089
sg340
(dp1090
sg342
(dp1091
sg344
(dp1092
sg346
(dp1093
sg348
(dp1094
sg350
(dp1095
sg352
(dp1096
sg354
(dp1097
sg356
(dp1098
sg358
(dp1099
sg360
(dp1100
sg362
(dp1101
sg364
(dp1102
sg366
(dp1103
Vtrm_4a3fd79d0a04f
p1104
(dp1105
sg604
(dp1106
ssg368
(dp1107
sg370
(dp1108
sg372
(dp1109
sg374
(dp1110
sg376
(dp1111
g656
(dp1112
ssg378
(dp1113
g636
(dp1114
ssg380
(dp1115
sg382
(dp1116
sg384
(dp1117
sg386
(dp1118
g588
(dp1119
sg292
g1063
ssg388
(dp1120
sg390
(dp1121
g788
(dp1122
sg644
(dp1123
sg692
(dp1124
ssg392
(dp1125
sg394
(dp1126
sg396
(dp1127
sg398
(dp1128
sg400
(dp1129
sg402
(dp1130
sg404
(dp1131
sg406
(dp1132
sg408
(dp1133
sg410
(dp1134
sg412
(dp1135
sg414
(dp1136
g550
(dp1137
sg130
g959
ssg416
(dp1138
sg418
(dp1139
sg420
(dp1140
sg422
(dp1141
g224
g1021
sg604
(dp1142
ssg424
(dp1143
sg426
(dp1144
sg428
(dp1145
g68
g919
ssg430
(dp1146
sg432
(dp1147
sg434
(dp1148
sg436
(dp1149
sg438
(dp1150
sg440
(dp1151
sg442
(dp1152
sg444
(dp1153
sg446
(dp1154
g770
(dp1155
sg32
g892
sg1104
(dp1156
sg716
(dp1157
sg636
(dp1158
sg34
g895
ssg448
(dp1159
sg450
(dp1160
sg452
(dp1161
sg454
(dp1162
sg456
(dp1163
sg458
(dp1164
sg460
(dp1165
sg462
(dp1166
sg464
(dp1167
sg466
(dp1168
g1011
(dp1169
ssg468
(dp1170
sg470
(dp1171
sg472
(dp1172
sg474
(dp1173
sg476
(dp1174
g656
(dp1175
ssg478
(dp1176
sg480
(dp1177
sg482
(dp1178
sg484
(dp1179
g274
g1051
ssg486
(dp1180
g522
(dp1181
ssg488
(dp1182
g34
g898
ssg490
(dp1183
sg492
(dp1184
sg494
(dp1185
sg496
(dp1186
sg498
(dp1187
sg500
(dp1188
g508
(dp1189
ssg502
(dp1190
g524
(dp1191
sg818
(dp1192
ssg504
(dp1193
g656
(dp1194
ssg506
(dp1195
sg508
(dp1196
g500
g1189
sg770
(dp1197
sVtrm_4a3fd79d0b4b5
p1198
(dp1199
sg818
(dp1200
sVtrm_4a3fd79d09ab2
p1201
(dp1202
sg220
g1018
sg70
g922
ssg510
(dp1203
sg512
(dp1204
sg514
(dp1205
sg516
(dp1206
sg518
(dp1207
sg520
(dp1208
sg522
(dp1209
g486
g1181
sg656
(dp1210
ssg524
(dp1211
g850
(dp1212
sVtrm_4e89aebaa311d
p1213
g1191
sg656
(dp1214
ssg526
(dp1215
g972
(dp1216
sg626
(dp1217
ssg528
(dp1218
g314
g1077
ssg530
(dp1219
sg532
(dp1220
sg534
(dp1221
sg536
(dp1222
sg538
(dp1223
sg540
(dp1224
sg542
(dp1225
sg544
(dp1226
sg546
(dp1227
sg548
(dp1228
sg550
(dp1229
g1104
(dp1230
sg130
g958
sg414
g1137
ssg552
(dp1231
sg554
(dp1232
g824
(dp1233
ssg556
(dp1234
sg558
(dp1235
sg560
(dp1236
sg562
(dp1237
sg564
(dp1238
sg566
(dp1239
sg568
(dp1240
sg570
(dp1241
sg572
(dp1242
sg574
(dp1243
sg576
(dp1244
Vtrm_4a3fd79d0a775
p1245
g886
sg604
(dp1246
ssg578
(dp1247
sg580
(dp1248
sg582
(dp1249
g212
g1010
ssg584
(dp1250
sg586
(dp1251
sg588
(dp1252
g386
g1119
ssg590
(dp1253
sg592
(dp1254
sg594
(dp1255
sg596
(dp1256
sg598
(dp1257
g614
(dp1258
sg838
(dp1259
sg76
g926
sg194
g997
sg312
g1074
ssg600
(dp1260
sg602
(dp1261
sg604
(dp1262
g14
g880
sg576
g1246
sg422
g1142
sg366
g1106
sg854
(dp1263
ssg606
(dp1264
sg608
(dp1265
sg610
(dp1266
sg612
(dp1267
sg614
(dp1268
g250
g1036
sg598
g1258
ssg616
(dp1269
g842
(dp1270
ssg618
(dp1271
sg620
(dp1272
sg622
(dp1273
sg624
(dp1274
g896
(dp1275
sg366
g1105
sg550
g1230
sg894
g1156
ssg626
(dp1276
g526
g1217
ssg628
(dp1277
sg630
(dp1278
g106
g944
ssg632
(dp1279
sg634
(dp1280
g850
(dp1281
ssg636
(dp1282
g378
g1114
sg446
g1158
ssg638
(dp1283
sg640
(dp1284
sg642
(dp1285
sg644
(dp1286
g390
g1123
sg212
g1008
ssg646
(dp1287
sg648
(dp1288
sg650
(dp1289
sg652
(dp1290
sg654
(dp1291
sg656
(dp1292
g730
(dp1293
sg476
g1175
sg522
g1210
sg524
g1214
sg794
(dp1294
sg508
g1202
sg376
g1112
sg504
g1194
sg870
(dp1295
ssg658
(dp1296
sg660
(dp1297
g274
g1050
ssg662
(dp1298
sg664
(dp1299
sg666
(dp1300
sg668
(dp1301
sg670
(dp1302
g236
g1028
sg152
g973
sg526
g1216
ssg672
(dp1303
g850
(dp1304
ssg674
(dp1305
sg676
(dp1306
sg678
(dp1307
sg680
(dp1308
sg682
(dp1309
sg684
(dp1310
sg686
(dp1311
sg688
(dp1312
sg690
(dp1313
sg692
(dp1314
g390
g1124
ssg694
(dp1315
sg696
(dp1316
sg698
(dp1317
sg700
(dp1318
sg702
(dp1319
sg704
(dp1320
sg706
(dp1321
sg708
(dp1322
sg710
(dp1323
sg712
(dp1324
sg714
(dp1325
sg716
(dp1326
g446
g1157
ssg718
(dp1327
sg720
(dp1328
sg722
(dp1329
sg724
(dp1330
sg726
(dp1331
sg728
(dp1332
sg730
(dp1333
g850
(dp1334
sg656
g1293
ssg732
(dp1335
sg734
(dp1336
sg736
(dp1337
sg738
(dp1338
sg740
(dp1339
sg742
(dp1340
sg744
(dp1341
sg746
(dp1342
sg748
(dp1343
sg750
(dp1344
sg752
(dp1345
g466
g1169
sg212
g1012
ssg754
(dp1346
sg756
(dp1347
sg758
(dp1348
g212
g1009
ssg760
(dp1349
sg762
(dp1350
g212
g1013
ssg764
(dp1351
sg766
(dp1352
sg768
(dp1353
sg770
(dp1354
Vtrm_5519b7525d7a2
p1355
g964
sg446
g1155
sg508
g1197
sg68
g918
ssg772
(dp1356
sg774
(dp1357
sg776
(dp1358
sg778
(dp1359
sg780
(dp1360
sg782
(dp1361
sg784
(dp1362
sg786
(dp1363
sg788
(dp1364
g390
g1122
ssg790
(dp1365
g1104
g1275
sg34
g897
sg822
(dp1366
sg32
g891
ssg792
(dp1367
sg794
(dp1368
g656
g1294
ssg796
(dp1369
sg798
(dp1370
sg800
(dp1371
sg802
(dp1372
sg804
(dp1373
sg806
(dp1374
sg808
(dp1375
sg810
(dp1376
sg812
(dp1377
sg814
(dp1378
sg816
(dp1379
sg818
(dp1380
g1213
g1192
sg508
g1200
ssg820
(dp1381
sg822
(dp1382
g790
g1366
ssg824
(dp1383
g554
g1233
sg80
g930
ssg826
(dp1384
sg828
(dp1385
sg830
(dp1386
g850
(dp1387
ssg832
(dp1388
sg834
(dp1389
sg836
(dp1390
sg838
(dp1391
g598
g1259
ssg840
(dp1392
sg842
(dp1393
g616
g1270
ssg844
(dp1394
sg846
(dp1395
sg848
(dp1396
sg850
(dp1397
g830
g1387
sg730
g1334
sg524
g1212
sg292
g1061
sg508
g1199
sg672
g1304
sg634
g1281
ssg852
(dp1398
sg854
(dp1399
Vtrm_4a3fd79d0a833
p1400
g1047
sg604
g1263
ssg856
(dp1401
sg858
(dp1402
sg860
(dp1403
sg862
(dp1404
sg864
(dp1405
sg866
(dp1406
sg868
(dp1407
sg870
(dp1408
g656
g1295
sssS'graph'
p1409
(dp1410
sS'adjlist_dict_factory'
p1411
g873
sS'adj'
p1412
g876
sbsS'partof'
p1413
g2
(g3
g4
Ntp1414
Rp1415
(dp1416
g8
(dp1417
Vtrm_4a3fd79d0aa6a
p1418
(dp1419
sVtrm_4a3fd79d0a300
p1420
(dp1421
sVtrm_5029515e29f7f
p1422
(dp1423
sg12
(dp1424
sVtrm_4a3fd79d0b967
p1425
(dp1426
sVtrm_4a3fd79d0a781
p1427
(dp1428
sg212
(dp1429
sg670
(dp1430
sg214
(dp1431
sVtrm_4a3fd79d0a78d
p1432
(dp1433
sVtrm_4a3fd79d0b160
p1434
(dp1435
sVtrm_502ad54c11389
p1436
(dp1437
sg820
(dp1438
sg622
(dp1439
sg440
(dp1440
sg92
(dp1441
sVtrm_4a3fd79d0a04f
p1442
(dp1443
sg150
(dp1444
sg24
(dp1445
sg26
(dp1446
sg398
(dp1447
sg364
(dp1448
sVtrm_557b471bc6cd8
p1449
(dp1450
sg678
(dp1451
sg224
(dp1452
sVtrm_4a3fd79d0ba01
p1453
(dp1454
sVtrm_5024002a85b1f
p1455
(dp1456
sg756
(dp1457
sVtrm_4a3fd79d0a891
p1458
(dp1459
sg370
(dp1460
sg134
(dp1461
sg482
(dp1462
sVtrm_4a3fd79d0b67d
p1463
(dp1464
sVtrm_557b476527a27
p1465
(dp1466
sVtrm_4a3fd79d09713
p1467
(dp1468
sVtrm_4a3fd79d0b607
p1469
(dp1470
sg228
(dp1471
sVtrm_4a3fd79d0b37a
p1472
(dp1473
sg690
(dp1474
sg584
(dp1475
sVtrm_55ef153d47bc0
p1476
(dp1477
sVtrm_4a3fd79d0a252
p1478
(dp1479
sg52
(dp1480
sg456
(dp1481
sVtrm_4e5506161998c
p1482
(dp1483
sg218
(dp1484
sVtrm_4a3fd79d0b892
p1485
(dp1486
sVtrm_4a3fd79d0b043
p1487
(dp1488
sg776
(dp1489
sg64
(dp1490
sg564
(dp1491
sg66
(dp1492
sVtrm_4d21e9a7dd8ca
p1493
(dp1494
sg694
(dp1495
sVtrm_4a3fd79d0b4cd
p1496
(dp1497
sVtrm_558c7b14c076e
p1498
(dp1499
sg732
(dp1500
sVtrm_5595bd89d77c6
p1501
(dp1502
sg702
(dp1503
sg68
(dp1504
sVtrm_4a3fd79d0ba0d
p1505
(dp1506
sVtrm_4fafd1626bf2b
p1507
(dp1508
sVtrm_4a3fd79d0b0f7
p1509
(dp1510
sVtrm_4a3fd79d0a72e
p1511
(dp1512
sVtrm_557b4993a0fdd
p1513
(dp1514
sVtrm_4a3fd79d0b613
p1515
(dp1516
sg346
(dp1517
sVtrm_4fe8edc62f613
p1518
(dp1519
sVtrm_4ff36d79c26c6
p1520
(dp1521
sVtrm_4a3fd79d09b1c
p1522
(dp1523
sg740
(dp1524
sVtrm_4b65259eeee34
p1525
(dp1526
sg74
(dp1527
sg662
(dp1528
sVtrm_5519b7525d7a2
p1529
(dp1530
sVtrm_4c3e04d656f06
p1531
(dp1532
sVtrm_4a3fd79d0b58f
p1533
(dp1534
sVtrm_4a3fd79d0aeb6
p1535
(dp1536
sg722
(dp1537
sg262
(dp1538
sVtrm_4a3fd79d0b1f7
p1539
(dp1540
sVtrm_4a3fd79d0ab70
p1541
(dp1542
sVtrm_4a3fd79d0b1e0
p1543
(dp1544
sg728
(dp1545
sVtrm_4a3fd79d0abb6
p1546
(dp1547
sVtrm_4a3fd79d09a8f
p1548
(dp1549
sg978
(dp1550
sVtrm_558c7ae1eaf86
p1551
(dp1552
sVtrm_4a3fd79d0aab0
p1553
(dp1554
sVtrm_4b45f467bf238
p1555
(dp1556
sg480
(dp1557
sg734
(dp1558
sg94
(dp1559
sVtrm_55c298bbe56d5
p1560
(dp1561
sg486
(dp1562
sVtrm_4a3fd79d0af7d
p1563
(dp1564
sg98
(dp1565
sg100
(dp1566
sg738
(dp1567
sg490
(dp1568
sg284
(dp1569
sVtrm_4a3fd79d098c9
p1570
(dp1571
sVtrm_5159beaf80413
p1572
(dp1573
sVtrm_4e89aebaa311d
p1574
(dp1575
sVtrm_4a3fd79d0ab7c
p1576
(dp1577
sg120
(dp1578
sg168
(dp1579
sVtrm_4a3fd79d09a3d
p1580
(dp1581
sg110
(dp1582
sg298
(dp1583
sVtrm_4a3fd79d0a038
p1584
(dp1585
sg116
(dp1586
sVtrm_557b4ab076338
p1587
(dp1588
sg510
(dp1589
sVtrm_4a3fd79d0a431
p1590
(dp1591
sVtrm_4a3fd79d0adb7
p1592
(dp1593
sg516
(dp1594
sg754
(dp1595
sVtrm_4a3fd79d097b4
p1596
(dp1597
sg520
(dp1598
sVtrm_4a3fd79d09707
p1599
(dp1600
sVtrm_551f0d8c69a13
p1601
(dp1602
sVtrm_56006cb5a61ac
p1603
(dp1604
sg750
(dp1605
sg528
(dp1606
sVtrm_4a3fd79d0a83f
p1607
(dp1608
sg506
(dp1609
sg596
(dp1610
sVtrm_502954662d63e
p1611
(dp1612
sg536
(dp1613
sVtrm_55b6b9a666604
p1614
(dp1615
sg308
(dp1616
sg312
(dp1617
sVtrm_5159c94667677
p1618
(dp1619
sVtrm_4a3fd79d0b279
p1620
(dp1621
sVtrm_55ce70b20186b
p1622
(dp1623
sVtrm_55ef1fd2bc418
p1624
(dp1625
sg314
(dp1626
sg318
(dp1627
sVtrm_4a3fd79d0b077
p1628
(dp1629
sg714
(dp1630
sg782
(dp1631
sg784
(dp1632
sg322
(dp1633
sg108
(dp1634
sg226
(dp1635
sVtrm_4a3fd79d0ba48
p1636
(dp1637
sg790
(dp1638
sg792
(dp1639
sg326
(dp1640
sVtrm_4a3fd79d0ac87
p1641
(dp1642
sVtrm_4a3fd79d0a1f4
p1643
(dp1644
sVtrm_4a3fd79d09be2
p1645
(dp1646
sg856
(dp1647
sVtrm_4a3fd79d0b89e
p1648
(dp1649
sVtrm_4a3fd79d0ac9e
p1650
(dp1651
sg338
(dp1652
sVtrm_4a3fd79d09b04
p1653
(dp1654
sVtrm_558c73f3c8c6f
p1655
(dp1656
sg340
(dp1657
sVtrm_4a3fd79d0a0a1
p1658
(dp1659
sVtrm_4a3fd79d09953
p1660
(dp1661
sVtrm_4f33e65d0daac
p1662
(dp1663
sVtrm_4a3fd79d0a642
p1664
(dp1665
sg344
(dp1666
sg492
(dp1667
sg682
(dp1668
sVtrm_4fe9fae4321e7
p1669
(dp1670
sg514
(dp1671
sg808
(dp1672
sVtrm_4feb44e5ae25b
p1673
(dp1674
sg566
(dp1675
sVtrm_4a3fd79d09aed
p1676
(dp1677
sg350
(dp1678
sg354
(dp1679
sVtrm_4a3fd79d0b247
p1680
(dp1681
sVtrm_4a3fd79d0b1d5
p1682
(dp1683
sg156
(dp1684
sg570
(dp1685
sVtrm_558c7439832d9
p1686
(dp1687
sg36
(dp1688
sg612
(dp1689
sVtrm_4a3fd79d0b083
p1690
(dp1691
sVtrm_4fea1aeaa7b17
p1692
(dp1693
sg578
(dp1694
sVtrm_4a3fd79d0b802
p1695
(dp1696
sVtrm_4a3fd79d0aaa4
p1697
(dp1698
sVtrm_55b6b9d7c9435
p1699
(dp1700
sVtrm_502ab8dd991bf
p1701
(dp1702
sVtrm_5159cb12a0f92
p1703
(dp1704
sVtrm_557b4891e9265
p1705
(dp1706
sg190
(dp1707
sg206
(dp1708
sg592
(dp1709
sg594
(dp1710
sVtrm_4a3fd79d09b10
p1711
(dp1712
sg372
(dp1713
sVtrm_4a3fd79d0a73a
p1714
(dp1715
sVtrm_4a3fd79d09d93
p1716
(dp1717
sVtrm_4a3fd79d0b4d8
p1718
(dp1719
sVtrm_5519b92bde7dc
p1720
(dp1721
sVtrm_5519ba1746e95
p1722
(dp1723
sg560
(dp1724
sVtrm_5519bb7767d98
p1725
(dp1726
sg862
(dp1727
sg834
(dp1728
sg836
(dp1729
sVtrm_4a3fd79d0a17f
p1730
(dp1731
sVtrm_4a3fd79d0a769
p1732
(dp1733
sg382
(dp1734
sVtrm_4a3fd79d0ac30
p1735
(dp1736
sg558
(dp1737
sg180
(dp1738
sg608
(dp1739
sg810
(dp1740
sVtrm_4a3fd79d0b9ad
p1741
(dp1742
sg688
(dp1743
sVtrm_55ef3ba010121
p1744
(dp1745
sVtrm_4a3fd79d0ba60
p1746
(dp1747
sVtrm_4a3fd79d0a196
p1748
(dp1749
sVtrm_4fe39e4388409
p1750
(dp1751
sVtrm_558c73b3663a6
p1752
(dp1753
sg104
(dp1754
sVtrm_4a3fd79d09735
p1755
(dp1756
sVtrm_4a3fd79d0b55f
p1757
(dp1758
sVtrm_557b494ca540d
p1759
(dp1760
sg188
(dp1761
sg402
(dp1762
sVtrm_558c7b5228ed4
p1763
(dp1764
sg846
(dp1765
sg626
(dp1766
sg192
(dp1767
sVtrm_557b4b47d994a
p1768
(dp1769
sVtrm_557b4a913f8cc
p1770
(dp1771
sVtrm_4b75ed06c917d
p1772
(dp1773
sVtrm_4c3e05903e4bb
p1774
(dp1775
sVtrm_4a3fd79d0b53c
p1776
(dp1777
sg196
(dp1778
sVtrm_4a3fd79d09ab2
p1779
(dp1780
sVtrm_4a3fd79d09e35
p1781
(dp1782
sg198
(dp1783
sg200
(dp1784
sVtrm_502bdc6bdaa2b
p1785
(dp1786
sg636
(dp1787
sg316
(dp1788
sVtrm_4a3fd79d0a833
p1789
(dp1790
sg202
(dp1791
sg72
(dp1792
sVtrm_4a3fd79d09d35
p1793
(dp1794
sg802
(dp1795
sVtrm_4a3fd79d0a281
p1796
(dp1797
sVtrm_4a3fd79d0ba19
p1798
(dp1799
sVtrm_4a3fd79d0afda
p1800
(dp1801
sVtrm_557b4844ca14d
p1802
(dp1803
sVtrm_4f4511e519b53
p1804
(dp1805
sVtrm_4b6525253c63f
p1806
(dp1807
sVtrm_4a3fd79d0a116
p1808
(dp1809
sVtrm_4a3fd79d0affd
p1810
(dp1811
sVtrm_4ff1fc04e22e8
p1812
(dp1813
sVtrm_4aae62e4ad209
p1814
(dp1815
sg614
(dp1816
sg680
(dp1817
sVtrm_4a3fd79d09a49
p1818
(dp1819
sVtrm_4a3fd79d0a05b
p1820
(dp1821
sVtrm_4a3fd79d0b4b5
p1822
(dp1823
sVtrm_4a3fd79d098a6
p1824
(dp1825
sg436
(dp1826
sVtrm_4a3fd79d0b972
p1827
(dp1828
sg870
(dp1829
sg210
(dp1830
ssg872
g873
sg874
g873
sg875
(dp1831
g1418
(dp1832
g1553
(dp1833
ssg1420
(dp1834
g694
(dp1835
ssg1422
(dp1836
g1822
(dp1837
sg1673
(dp1838
ssg12
(dp1839
g284
(dp1840
ssg1425
(dp1841
g1442
(dp1842
sg1622
(dp1843
sg1453
(dp1844
ssg1427
(dp1845
g1732
(dp1846
ssg212
(dp1847
g156
(dp1848
sg732
(dp1849
sg150
(dp1850
sg1798
(dp1851
sg480
(dp1852
sg1774
(dp1853
sg1601
(dp1854
sg578
(dp1855
sg1699
(dp1856
sg1746
(dp1857
sg1531
(dp1858
sg734
(dp1859
sg1584
(dp1860
sg1505
(dp1861
sg436
(dp1862
sg836
(dp1863
sg1614
(dp1864
sg210
(dp1865
ssg670
(dp1866
g740
(dp1867
sg338
(dp1868
sg808
(dp1869
sg688
(dp1870
sg1496
(dp1871
sg1692
(dp1872
sg1781
(dp1873
sg318
(dp1874
ssg214
(dp1875
g1584
(dp1876
ssg1432
(dp1877
g198
(dp1878
sg1732
(dp1879
ssg1434
(dp1880
g1662
(dp1881
ssg1436
(dp1882
g1645
(dp1883
ssg820
(dp1884
g1732
(dp1885
ssg622
(dp1886
g1732
(dp1887
ssg440
(dp1888
g1822
(dp1889
ssg92
(dp1890
g1703
(dp1891
ssg1442
(dp1892
Vtrm_4a3fd79d0b95b
p1893
(dp1894
sg754
(dp1895
sVtrm_4a3fd79d0b967
p1896
g1842
ssg150
(dp1897
g212
g1850
ssg24
(dp1898
g198
(dp1899
ssg26
(dp1900
g1732
(dp1901
ssg398
(dp1902
g1539
(dp1903
sg1779
(dp1904
ssg364
(dp1905
g1496
(dp1906
ssg1449
(dp1907
g1572
(dp1908
ssg678
(dp1909
g1507
(dp1910
ssg224
(dp1911
g200
(dp1912
ssg1453
(dp1913
g790
(dp1914
sg1425
g1844
ssg1455
(dp1915
Vtrm_4fe8edc62f613
p1916
(dp1917
sVtrm_4a3fd79d0ab70
p1918
(dp1919
ssg756
(dp1920
Vtrm_4a3fd79d09c1c
p1921
(dp1922
sg1669
(dp1923
ssg1458
(dp1924
g594
(dp1925
sg558
(dp1926
sg1563
(dp1927
sg66
(dp1928
ssg370
(dp1929
g1822
(dp1930
ssg134
(dp1931
g1680
(dp1932
ssg482
(dp1933
g1703
(dp1934
ssg1463
(dp1935
g834
(dp1936
sg1596
(dp1937
ssg1465
(dp1938
g870
(dp1939
ssg1467
(dp1940
g1539
(dp1941
sg1779
(dp1942
ssg1469
(dp1943
g614
(dp1944
sg752
(dp1945
ssg228
(dp1946
g1732
(dp1947
ssg1472
(dp1948
g200
(dp1949
ssg690
(dp1950
g1748
(dp1951
ssg584
(dp1952
g1732
(dp1953
ssg1476
(dp1954
g402
(dp1955
ssg1478
(dp1956
g480
(dp1957
ssg52
(dp1958
g1697
(dp1959
ssg456
(dp1960
g520
(dp1961
ssg1482
(dp1962
g1750
(dp1963
ssg218
(dp1964
g1560
(dp1965
ssg1485
(dp1966
g1732
(dp1967
ssg1487
(dp1968
g298
(dp1969
ssg776
(dp1970
g1680
(dp1971
ssg64
(dp1972
g1814
(dp1973
ssg564
(dp1974
g1732
(dp1975
ssg66
(dp1976
g1458
g1928
ssg1493
(dp1977
g680
(dp1978
sg346
(dp1979
ssg694
(dp1980
g756
g1922
sg1420
g1835
sg1716
(dp1981
sg1539
(dp1982
ssg1496
(dp1983
g364
g1906
sg670
g1871
sg682
(dp1984
sg344
(dp1985
ssg1498
(dp1986
g510
(dp1987
ssg732
(dp1988
g212
g1849
ssg1501
(dp1989
g36
(dp1990
ssg702
(dp1991
g1520
(dp1992
ssg68
(dp1993
g1622
(dp1994
sg1810
(dp1995
ssg1505
(dp1996
g1576
(dp1997
sg212
g1861
ssg1507
(dp1998
g1806
(dp1999
sg678
g1910
sg514
(dp2000
ssg1509
(dp2001
g516
(dp2002
ssg1511
(dp2003
g1714
(dp2004
ssg1513
(dp2005
g262
(dp2006
sg1584
(dp2007
ssg1515
(dp2008
g614
(dp2009
ssg346
(dp2010
g1493
g1979
ssg1518
(dp2011
g1664
(dp2012
sg782
(dp2013
sg1541
(dp2014
sg1455
g1917
ssg1520
(dp2015
g702
g1992
ssg1522
(dp2016
g1812
(dp2017
sg1711
(dp2018
ssg740
(dp2019
g670
g1867
ssg1525
(dp2020
g226
(dp2021
sg750
(dp2022
ssg74
(dp2023
g1732
(dp2024
ssg662
(dp2025
g1732
(dp2026
ssg1529
(dp2027
g1622
(dp2028
ssg1531
(dp2029
g212
g1858
ssg1533
(dp2030
g1752
(dp2031
sg1535
(dp2032
ssg1535
(dp2033
g1686
(dp2034
sg1533
g2032
sg1695
(dp2035
sg802
(dp2036
ssg722
(dp2037
g1732
(dp2038
sg856
(dp2039
ssg262
(dp2040
g1735
(dp2041
sg1513
g2006
ssg1539
(dp2042
g398
g1903
sg1676
(dp2043
sg1467
g1941
sg694
g1982
ssg1541
(dp2044
g1455
g1919
sg1916
g2014
ssg1543
(dp2045
g116
(dp2046
ssg728
(dp2047
g1653
(dp2048
ssg1546
(dp2049
g1822
(dp2050
sg1779
(dp2051
ssg1548
(dp2052
g1779
(dp2053
ssg978
(dp2054
g1686
(dp2055
sg1763
(dp2056
ssg1551
(dp2057
g1768
(dp2058
ssg1553
(dp2059
g1418
g1833
ssg1555
(dp2060
g792
(dp2061
ssg480
(dp2062
g1478
g1957
sg212
g1852
sg1814
(dp2063
ssg734
(dp2064
g212
g1859
ssg94
(dp2065
g1822
(dp2066
sg1779
(dp2067
ssg1560
(dp2068
g218
g1965
ssg486
(dp2069
g1599
(dp2070
ssg1563
(dp2071
g1458
g1927
sg492
(dp2072
ssg98
(dp2073
g1822
(dp2074
ssg100
(dp2075
g554
(dp2076
sg1732
(dp2077
sg536
(dp2078
ssg738
(dp2079
g1757
(dp2080
sg1732
(dp2081
ssg490
(dp2082
g1592
(dp2083
sg1576
(dp2084
ssg284
(dp2085
g12
g1840
ssg1570
(dp2086
g1664
(dp2087
ssg1572
(dp2088
g1449
g1908
ssg1574
(dp2089
g1673
(dp2090
ssg1576
(dp2091
g490
g2084
sg326
(dp2092
sg1505
g1997
sg372
(dp2093
sg784
(dp2094
sg308
(dp2095
ssg120
(dp2096
g1703
(dp2097
sg528
(dp2098
ssg168
(dp2099
g1779
(dp2100
ssg1580
(dp2101
g1599
(dp2102
sg1641
(dp2103
sg1779
(dp2104
ssg110
(dp2105
g1770
(dp2106
ssg298
(dp2107
g1487
g1969
sg1590
(dp2108
ssg1584
(dp2109
g466
g2007
sg1469
g1945
sg520
(dp2110
sg212
g1860
sg214
g1876
sg180
(dp2111
sg402
(dp2112
ssg116
(dp2113
g1543
g2046
sg1718
(dp2114
ssg1587
(dp2115
g382
(dp2116
ssg510
(dp2117
g1498
g1987
ssg1590
(dp2118
g312
(dp2119
sg298
g2108
ssg1592
(dp2120
g490
g2083
ssg516
(dp2121
g1509
g2002
ssg754
(dp2122
g1442
g1895
ssg1596
(dp2123
g38
g1937
ssg520
(dp2124
g1755
(dp2125
sg456
g1961
sg1584
g2110
ssg1599
(dp2126
g1580
g2102
sg486
g2070
sg1779
(dp2127
ssg1601
(dp2128
g212
g1854
ssg1603
(dp2129
g626
(dp2130
ssg750
(dp2131
g1525
g2022
ssg528
(dp2132
g120
g2098
sg312
(dp2133
sg340
(dp2134
sg1804
(dp2135
sg626
(dp2136
ssg1607
(dp2137
g1759
(dp2138
sg566
(dp2139
ssg506
(dp2140
g1776
(dp2141
sg1732
(dp2142
ssg596
(dp2143
g1822
(dp2144
sg1701
(dp2145
ssg1611
(dp2146
g1741
(dp2147
ssg536
(dp2148
Vtrm_4a3fd79d0b826
p2149
g2078
ssg1614
(dp2150
g212
g1864
ssg308
(dp2151
g1576
g2095
ssg312
(dp2152
g1735
(dp2153
sg1590
g2119
sg528
g2133
ssg1618
(dp2154
g1806
(dp2155
sg1703
(dp2156
ssg1620
(dp2157
g206
(dp2158
ssg1622
(dp2159
g1529
g2028
sg1425
g1843
sg68
g1994
ssg1624
(dp2160
g1686
(dp2161
ssg314
(dp2162
g1703
(dp2163
ssg318
(dp2164
g670
g1874
ssg1628
(dp2165
g1732
(dp2166
ssg714
(dp2167
g1770
(dp2168
ssg782
(dp2169
g1814
(dp2170
sg1518
g2013
ssg784
(dp2171
g1576
g2094
ssg322
(dp2172
g1658
(dp2173
sg190
(dp2174
ssg108
(dp2175
g1062
(dp2176
ssg226
(dp2177
g1525
g2021
ssg1636
(dp2178
g1653
(dp2179
ssg790
(dp2180
g1442
g1894
sg1453
g1914
ssg792
(dp2181
g1555
g2061
ssg326
(dp2182
g1576
g2092
ssg1641
(dp2183
g1580
g2103
ssg1643
(dp2184
g1812
(dp2185
sg1781
(dp2186
ssg1645
(dp2187
g1436
g1883
ssg856
(dp2188
Vtrm_4a3fd79d0a7ec
p2189
g2039
ssg1648
(dp2190
g810
(dp2191
sg104
(dp2192
sg100
g2076
ssg1650
(dp2193
g1746
(dp2194
ssg338
(dp2195
g670
g1868
ssg1653
(dp2196
g1636
g2179
sg728
g2048
ssg1655
(dp2197
g1686
(dp2198
ssg340
(dp2199
Vtrm_4a3fd79d09849
p2200
g2134
ssg1658
(dp2201
g322
g2173
ssg1660
(dp2202
g1822
(dp2203
sg1779
(dp2204
ssg1662
(dp2205
g1434
g1881
ssg1664
(dp2206
g1916
g2012
sg1570
g2087
ssg344
(dp2207
g1822
(dp2208
sg1496
g1985
sg1779
(dp2209
ssg492
(dp2210
Vtrm_4a3fd79d0af7d
p2211
g2072
sg1818
(dp2212
ssg682
(dp2213
g1496
g1984
ssg1669
(dp2214
g756
g1923
ssg514
(dp2215
g1507
g2000
ssg808
(dp2216
g670
g1869
ssg1673
(dp2217
g1574
g2090
sg1422
g1838
ssg566
(dp2218
g1607
g2139
ssg1676
(dp2219
g1732
(dp2220
sg1539
g2043
ssg350
(dp2221
g1822
(dp2222
ssg354
(dp2223
g1680
(dp2224
ssg1680
(dp2225
g776
g1971
sg1744
(dp2226
sg134
g1932
sg354
g2224
ssg1682
(dp2227
g1800
(dp2228
ssg156
(dp2229
g212
g1848
ssg570
(dp2230
g1732
(dp2231
ssg1686
(dp2232
g1624
g2161
sg978
g2055
sg1655
g2198
sg1535
g2034
ssg36
(dp2233
g1501
g1990
ssg612
(dp2234
g180
(dp2235
ssg1690
(dp2236
g1732
(dp2237
ssg1692
(dp2238
g670
g1872
ssg578
(dp2239
g212
g1855
ssg1695
(dp2240
g1732
(dp2241
sg104
(dp2242
sVtrm_4a3fd79d0aeb6
p2243
g2035
ssg1697
(dp2244
g52
g1959
ssg1699
(dp2245
g212
g1856
ssg1701
(dp2246
g1822
(dp2247
sVtrm_4a3fd79d0b9dd
p2248
g2145
ssg1703
(dp2249
g120
g2097
sg538
g2156
sg1806
(dp2250
sg314
g2163
sg482
g1934
sg92
g1891
ssg1705
(dp2251
g1741
(dp2252
ssg190
(dp2253
Vtrm_4fea04a02ce37
p2254
g2174
ssg206
(dp2255
g1620
g2158
ssg592
(dp2256
g1735
(dp2257
ssg594
(dp2258
g1458
g1925
ssg1711
(dp2259
g1522
g2018
ssg372
(dp2260
g1576
g2093
ssg1714
(dp2261
g1511
g2004
ssg1716
(dp2262
g694
g1981
ssg1718
(dp2263
g116
g2114
ssg1720
(dp2264
g1822
(dp2265
ssg1722
(dp2266
g1822
(dp2267
sg1779
(dp2268
ssg560
(dp2269
g1802
(dp2270
ssg1725
(dp2271
g1779
(dp2272
ssg862
(dp2273
g1796
(dp2274
ssg834
(dp2275
g1463
g1936
sg1772
(dp2276
ssg836
(dp2277
g212
g1863
ssg1730
(dp2278
g658
(dp2279
sg636
(dp2280
ssg1732
(dp2281
g662
g2026
sg1427
g1846
sg820
g1885
sg56
g1879
sg722
g2038
sg608
(dp2282
sg26
g1901
sg622
g1887
sVtrm_4a3fd79d0b802
p2283
g2241
sg100
g2077
sg738
g2081
sg228
g1947
sg196
(dp2284
sg342
(dp2285
sg198
(dp2286
sg506
g2142
sg564
g1975
sg1628
g2166
sg1676
g2220
sg1793
(dp2287
sg570
g2231
sg72
(dp2288
sg74
g2024
sg1690
g2237
sg584
g1953
sg1485
g1967
ssg382
(dp2289
g1587
g2116
ssg1735
(dp2290
g592
g2257
sg312
g2153
sg262
g2041
sg202
(dp2291
sg1755
(dp2292
ssg558
(dp2293
g1458
g1926
ssg180
(dp2294
g612
g2235
sg1584
g2111
ssg608
(dp2295
g1732
g2282
ssg810
(dp2296
g1648
g2191
ssg1741
(dp2297
g108
g2176
sg1705
g2252
sg1611
g2147
ssg688
(dp2298
g670
g1870
ssg1744
(dp2299
g1680
g2226
ssg1746
(dp2300
g188
(dp2301
sg1824
(dp2302
sg212
g1857
sg1650
g2194
ssg1748
(dp2303
g690
g1951
sg1730
g2279
ssg1750
(dp2304
g1482
g1963
ssg1752
(dp2305
g1533
g2031
ssg104
(dp2306
g1695
g2242
sg554
g2192
ssg1755
(dp2307
g520
g2125
sg316
(dp2308
sg838
g2292
ssg1757
(dp2309
g738
g2080
ssg1759
(dp2310
g1607
g2138
ssg188
(dp2311
g390
g2301
ssg402
(dp2312
g1476
g1955
sg1584
g2112
ssg1763
(dp2313
g978
g2056
ssg846
(dp2314
g1789
(dp2315
sg1827
(dp2316
ssg626
(dp2317
g1603
g2130
sg528
g2136
ssg192
(dp2318
g1779
(dp2319
ssg1768
(dp2320
g1551
g2058
ssg1770
(dp2321
g714
g2168
sg110
g2106
ssg1772
(dp2322
g834
g2276
ssg1774
(dp2323
g212
g1853
ssg1776
(dp2324
g506
g2141
sg1732
g2285
ssg196
(dp2325
g1732
g2284
ssg1779
(dp2326
g192
g2319
sg1660
g2204
sg1546
g2051
sg1548
g2053
sg1725
g2272
sg1599
g2127
sg1722
g2268
sg1467
g1942
sg344
g2209
sg398
g1904
sVtrm_4a3fd79d09a3d
p2327
g2104
sg94
g2067
sg168
g2100
ssg1781
(dp2328
g670
g1873
sg1643
g2186
ssg198
(dp2329
g1432
g1878
sg24
g1899
sg1732
g2286
ssg200
(dp2330
g1472
g1949
sg224
g1912
ssg1785
(dp2331
g1822
(dp2332
sg1808
(dp2333
ssg636
(dp2334
g1730
g2280
ssg316
(dp2335
g1755
g2308
ssg1789
(dp2336
g846
g2315
ssg202
(dp2337
g1735
g2291
ssg72
(dp2338
g1732
g2288
ssg1793
(dp2339
g604
g2287
ssg802
(dp2340
g1535
g2036
ssg1796
(dp2341
g862
g2274
ssg1798
(dp2342
g212
g1851
ssg1800
(dp2343
g1682
g2228
ssg1802
(dp2344
g560
g2270
ssg1804
(dp2345
g528
g2135
ssg1806
(dp2346
g1507
g1999
sg1618
g2155
sg1703
g2250
ssg1808
(dp2347
g634
g2333
ssg1810
(dp2348
g1820
(dp2349
sg68
g1995
ssg1812
(dp2350
g1522
g2017
sg957
g2185
ssg1814
(dp2351
g480
g2063
sg782
g2170
sg64
g1973
ssg614
(dp2352
g1515
g2009
sg1469
g1944
ssg680
(dp2353
g1493
g1978
ssg1818
(dp2354
Vtrm_4a3fd79d0b938
p2355
g2212
ssg1820
(dp2356
g428
g2349
ssg1822
(dp2357
g1720
g2265
sg1660
g2203
sg1546
g2050
sg1422
g1837
sg1722
g2267
sg1701
g2247
sg344
g2208
sg98
g2074
sg94
g2066
sg370
g1930
sg350
g2222
sg440
g1889
sg596
g2144
sg1785
g2332
ssg1824
(dp2358
g390
g2302
ssg436
(dp2359
g212
g1862
ssg1827
(dp2360
g846
g2316
ssg870
(dp2361
g1465
g1939
ssg210
(dp2362
g212
g1865
sssg1409
(dp2363
sg1411
g873
sg1412
g1831
sbsS'kindof'
p2364
g2
(g3
g4
Ntp2365
Rp2366
(dp2367
g8
(dp2368
g10
(dp2369
sg12
(dp2370
sg14
(dp2371
sVtrm_557b493e4203a
p2372
(dp2373
sg18
(dp2374
sg96
(dp2375
sVtrm_568427366401c
p2376
(dp2377
sg1245
(dp2378
sg28
(dp2379
sg30
(dp2380
sg32
(dp2381
sg34
(dp2382
sg42
(dp2383
sg44
(dp2384
sg46
(dp2385
sg48
(dp2386
sg50
(dp2387
sVtrm_4a3fd79d0a398
p2388
(dp2389
sg54
(dp2390
sVtrm_4a3fd79d0a527
p2391
(dp2392
sg218
(dp2393
sg58
(dp2394
sg60
(dp2395
sg62
(dp2396
sVtrm_4a3fd79d0af94
p2397
(dp2398
sg68
(dp2399
sg70
(dp2400
sVtrm_558c736199abd
p2401
(dp2402
sVtrm_4c3e04d656f06
p2403
(dp2404
sVtrm_4a3fd79d0aa76
p2405
(dp2406
sg80
(dp2407
sg82
(dp2408
sg406
(dp2409
sg86
(dp2410
sg88
(dp2411
sg90
(dp2412
sg442
(dp2413
sg2149
(dp2414
sg102
(dp2415
sg508
(dp2416
sg106
(dp2417
sg112
(dp2418
sg114
(dp2419
sg118
(dp2420
sg122
(dp2421
sg124
(dp2422
sg126
(dp2423
sg620
(dp2424
sg130
(dp2425
sg132
(dp2426
sg136
(dp2427
sg1355
(dp2428
sVtrm_4a3fd79d0a746
p2429
(dp2430
sg140
(dp2431
sg142
(dp2432
sg144
(dp2433
sg146
(dp2434
sg148
(dp2435
sg152
(dp2436
sg154
(dp2437
sg40
(dp2438
sg158
(dp2439
sg160
(dp2440
sg162
(dp2441
sVtrm_55ef687f48a9d
p2442
(dp2443
sg166
(dp2444
sVtrm_4a3fd79d0b13d
p2445
(dp2446
sg170
(dp2447
sVtrm_4fb2c38960950
p2448
(dp2449
sg174
(dp2450
sg176
(dp2451
sg178
(dp2452
sg182
(dp2453
sg186
(dp2454
sg280
(dp2455
sVtrm_4e5505361f160
p2456
(dp2457
sg204
(dp2458
sVtrm_4a3fd79d0a252
p2459
(dp2460
sg208
(dp2461
sg212
(dp2462
sg216
(dp2463
sg220
(dp2464
sg222
(dp2465
sVtrm_4a3fd79d0b548
p2466
(dp2467
sVtrm_4a3fd79d0a7bb
p2468
(dp2469
sg230
(dp2470
sg232
(dp2471
sg234
(dp2472
sVtrm_4a3fd79d0b043
p2473
(dp2474
sg238
(dp2475
sg240
(dp2476
sg242
(dp2477
sg244
(dp2478
sg246
(dp2479
sg248
(dp2480
sVtrm_4a3fd79d0b613
p2481
(dp2482
sg252
(dp2483
sg254
(dp2484
sg256
(dp2485
sg258
(dp2486
sg260
(dp2487
sg262
(dp2488
sg264
(dp2489
sg266
(dp2490
sg268
(dp2491
sg1400
(dp2492
sg272
(dp2493
sg274
(dp2494
sg276
(dp2495
sg278
(dp2496
sg194
(dp2497
sg282
(dp2498
sg286
(dp2499
sg288
(dp2500
sg290
(dp2501
sg292
(dp2502
sg294
(dp2503
sg296
(dp2504
sVtrm_4a3fd79d0b61f
p2505
(dp2506
sg298
(dp2507
sVtrm_4a3fd79d0ab65
p2508
(dp2509
sg302
(dp2510
sg304
(dp2511
sg306
(dp2512
sg310
(dp2513
sg312
(dp2514
sVtrm_557b4a81a4a17
p2515
(dp2516
sg316
(dp2517
sg320
(dp2518
sg2254
(dp2519
sVtrm_4a3fd79d0a5ed
p2520
(dp2521
sVtrm_5521a0512df9a
p2522
(dp2523
sg328
(dp2524
sg330
(dp2525
sVtrm_4a3fd79d0a908
p2526
(dp2527
sg332
(dp2528
sg334
(dp2529
sg336
(dp2530
sVtrm_4a3fd79d0b406
p2531
(dp2532
sg348
(dp2533
sVtrm_4e31d5c79ddfe
p2534
(dp2535
sg352
(dp2536
sg356
(dp2537
sg358
(dp2538
sg360
(dp2539
sg362
(dp2540
sg366
(dp2541
sg368
(dp2542
sg374
(dp2543
sg376
(dp2544
sg378
(dp2545
sg380
(dp2546
sg384
(dp2547
sg386
(dp2548
sg388
(dp2549
sg390
(dp2550
sg392
(dp2551
sVtrm_5595bde6b2e95
p2552
(dp2553
sg396
(dp2554
sg400
(dp2555
sg404
(dp2556
sg84
(dp2557
sg408
(dp2558
sg654
(dp2559
sg412
(dp2560
sg414
(dp2561
sg416
(dp2562
sg418
(dp2563
sg420
(dp2564
sg422
(dp2565
sg424
(dp2566
sg426
(dp2567
sg428
(dp2568
sg430
(dp2569
sg432
(dp2570
sg434
(dp2571
sg864
(dp2572
sVtrm_4a3fd79d0a300
p2573
(dp2574
sg92
(dp2575
sg444
(dp2576
sg664
(dp2577
sg448
(dp2578
sg450
(dp2579
sg452
(dp2580
sg454
(dp2581
sg458
(dp2582
sg460
(dp2583
sVtrm_4a3fd79d0aa0c
p2584
(dp2585
sg464
(dp2586
sg466
(dp2587
sg468
(dp2588
sg470
(dp2589
sg472
(dp2590
sg474
(dp2591
sg476
(dp2592
sg478
(dp2593
sg484
(dp2594
sVtrm_4a3fd79d09aa7
p2595
(dp2596
sg488
(dp2597
sg494
(dp2598
sVtrm_557b4b7176394
p2599
(dp2600
sg498
(dp2601
sg500
(dp2602
sg502
(dp2603
sg504
(dp2604
sVtrm_52b5f1ef4f9cc
p2605
(dp2606
sg510
(dp2607
sg512
(dp2608
sVtrm_4a3fd79d0ba54
p2609
(dp2610
sg518
(dp2611
sg522
(dp2612
sg524
(dp2613
sg526
(dp2614
sg1076
(dp2615
sg530
(dp2616
sg532
(dp2617
sg534
(dp2618
sg540
(dp2619
sg542
(dp2620
sg544
(dp2621
sVtrm_4ee8facd77dfc
p2622
(dp2623
sg548
(dp2624
sg550
(dp2625
sg552
(dp2626
sVtrm_4a3fd79d0b89e
p2627
(dp2628
sg556
(dp2629
sg562
(dp2630
sg568
(dp2631
sVtrm_4a3fd79d0b238
p2632
(dp2633
sg572
(dp2634
sg574
(dp2635
sg576
(dp2636
sg580
(dp2637
sVtrm_55b6b9d7c9435
p2638
(dp2639
sg586
(dp2640
sg588
(dp2641
sg590
(dp2642
sg592
(dp2643
sVtrm_4a3fd79d0b8e5
p2644
(dp2645
sVtrm_4a3fd79d0983e
p2646
(dp2647
sg598
(dp2648
sg600
(dp2649
sg602
(dp2650
sg604
(dp2651
sVtrm_4a3fd79d0b46f
p2652
(dp2653
sg184
(dp2654
sg612
(dp2655
sVtrm_4a3fd79d0a613
p2656
(dp2657
sg616
(dp2658
sg618
(dp2659
sg128
(dp2660
sg624
(dp2661
sg626
(dp2662
sg628
(dp2663
sg630
(dp2664
sg632
(dp2665
sg634
(dp2666
sVtrm_4a3fd79d0b665
p2667
(dp2668
sg638
(dp2669
sg640
(dp2670
sVtrm_4a3fd79d0a044
p2671
(dp2672
sg644
(dp2673
sVtrm_557b4b154e0d9
p2674
(dp2675
sg648
(dp2676
sg650
(dp2677
sg652
(dp2678
sg410
(dp2679
sg656
(dp2680
sg660
(dp2681
sg446
(dp2682
sg666
(dp2683
sg668
(dp2684
sg972
(dp2685
sg672
(dp2686
sg674
(dp2687
sg676
(dp2688
sg684
(dp2689
sg686
(dp2690
sg610
(dp2691
sVtrm_51a690a7492eb
p2692
(dp2693
sg692
(dp2694
sg20
(dp2695
sg696
(dp2696
sg698
(dp2697
sg700
(dp2698
sg702
(dp2699
sg704
(dp2700
sg706
(dp2701
sg708
(dp2702
sg710
(dp2703
sg712
(dp2704
sVtrm_4a3fd79d0b58f
p2705
(dp2706
sg718
(dp2707
sg720
(dp2708
sg2189
(dp2709
sg724
(dp2710
sg726
(dp2711
sg730
(dp2712
sVtrm_4a3fd79d0ba30
p2713
(dp2714
sg736
(dp2715
sg742
(dp2716
sg744
(dp2717
sg746
(dp2718
sVtrm_5519b80525e89
p2719
(dp2720
sVtrm_4a3fd79d0b037
p2721
(dp2722
sg1011
(dp2723
sVtrm_4a3fd79d0a723
p2724
(dp2725
sg758
(dp2726
sg760
(dp2727
sg762
(dp2728
sg764
(dp2729
sg766
(dp2730
sg768
(dp2731
sVtrm_55ce70b20186b
p2732
(dp2733
sg772
(dp2734
sg774
(dp2735
sg778
(dp2736
sg780
(dp2737
sg786
(dp2738
sg788
(dp2739
sg896
(dp2740
sg792
(dp2741
sg794
(dp2742
sg796
(dp2743
sg798
(dp2744
sg800
(dp2745
sg804
(dp2746
sg806
(dp2747
sg810
(dp2748
sg812
(dp2749
sg814
(dp2750
sg816
(dp2751
sg818
(dp2752
sg822
(dp2753
sg824
(dp2754
sg826
(dp2755
sVtrm_4a3fd79d09d93
p2756
(dp2757
sg828
(dp2758
sg830
(dp2759
sg832
(dp2760
sg834
(dp2761
sg838
(dp2762
sg840
(dp2763
sg842
(dp2764
sVtrm_4a3fd79d0b49e
p2765
(dp2766
sVtrm_4a3fd79d0b8cd
p2767
(dp2768
sg848
(dp2769
sg850
(dp2770
sg852
(dp2771
sg854
(dp2772
sVtrm_557b4add1837e
p2773
(dp2774
sg858
(dp2775
sg860
(dp2776
sVtrm_4a3fd79d0b492
p2777
(dp2778
sg438
(dp2779
sg866
(dp2780
sg868
(dp2781
sg870
(dp2782
ssg872
g873
sg874
g873
sg875
(dp2783
g10
(dp2784
g262
(dp2785
ssg12
(dp2786
g2526
(dp2787
ssg14
(dp2788
Vtrm_4a3fd79d0a275
p2789
(dp2790
ssg2372
(dp2791
g262
(dp2792
sg832
(dp2793
ssg18
(dp2794
g262
(dp2795
sg720
(dp2796
ssg96
(dp2797
g34
(dp2798
ssg2376
(dp2799
g2627
(dp2800
sg404
(dp2801
sg244
(dp2802
ssg1245
(dp2803
g810
(dp2804
sg452
(dp2805
sg576
(dp2806
sg2466
(dp2807
sg706
(dp2808
sg824
(dp2809
ssg28
(dp2810
Vtrm_4a3fd79d0aec1
p2811
(dp2812
ssg30
(dp2813
g2468
(dp2814
sg174
(dp2815
ssg32
(dp2816
g2397
(dp2817
ssg34
(dp2818
g640
(dp2819
sg270
(dp2820
sg124
(dp2821
sg894
(dp2822
sg708
(dp2823
sg896
(dp2824
sg212
(dp2825
sg470
(dp2826
sg624
(dp2827
sg472
(dp2828
sg128
(dp2829
sg90
(dp2830
sg844
(dp2831
sg256
(dp2832
sg458
(dp2833
sg2595
(dp2834
sg764
(dp2835
sg450
(dp2836
sg96
g2798
ssg42
(dp2837
g1355
(dp2838
sg656
(dp2839
ssg44
(dp2840
g250
(dp2841
ssg46
(dp2842
g2638
(dp2843
ssg48
(dp2844
g1434
(dp2845
sg2584
(dp2846
ssg50
(dp2847
g2429
(dp2848
ssg2388
(dp2849
g306
(dp2850
sg216
(dp2851
ssg54
(dp2852
g2732
(dp2853
ssg2391
(dp2854
g730
(dp2855
ssg218
(dp2856
g2401
(dp2857
ssg58
(dp2858
Vtrm_4a3fd79d09a10
p2859
(dp2860
ssg60
(dp2861
Vtrm_565bce2791089
p2862
(dp2863
ssg62
(dp2864
g850
(dp2865
sg2405
(dp2866
ssg2397
(dp2867
g574
(dp2868
sg746
(dp2869
sg32
g2817
ssg68
(dp2870
g118
(dp2871
sg1011
(dp2872
ssg70
(dp2873
g2638
(dp2874
ssg2401
(dp2875
g2724
(dp2876
sg218
g2857
sg568
(dp2877
sg248
(dp2878
sg540
(dp2879
ssg2403
(dp2880
g860
(dp2881
sg598
(dp2882
ssg2405
(dp2883
g2719
(dp2884
sg62
g2866
ssg80
(dp2885
g254
(dp2886
ssg82
(dp2887
g1570
(dp2888
ssg406
(dp2889
g957
(dp2890
ssg86
(dp2891
g508
(dp2892
ssg88
(dp2893
g850
(dp2894
sg172
(dp2895
sVtrm_4a3fd79d0aac8
p2896
(dp2897
sg656
(dp2898
ssg90
(dp2899
g34
g2830
ssg442
(dp2900
g2526
(dp2901
sg282
(dp2902
ssg2149
(dp2903
g746
(dp2904
ssg102
(dp2905
g2627
(dp2906
ssg508
(dp2907
g302
(dp2908
sg86
g2892
sg518
(dp2909
sg252
(dp2910
sg500
(dp2911
sg814
(dp2912
sg770
(dp2913
sg772
(dp2914
sg812
(dp2915
sg1198
(dp2916
sg818
(dp2917
sg1201
(dp2918
sg138
(dp2919
sg220
(dp2920
ssg106
(dp2921
g602
(dp2922
ssg112
(dp2923
Vtrm_5521a3da10349
p2924
(dp2925
ssg114
(dp2926
g2429
(dp2927
ssg118
(dp2928
g68
g2871
ssg122
(dp2929
g2811
(dp2930
ssg124
(dp2931
g34
g2821
ssg126
(dp2932
g2552
(dp2933
sg2667
(dp2934
ssg620
(dp2935
g562
(dp2936
ssg130
(dp2937
g414
(dp2938
ssg132
(dp2939
g2644
(dp2940
sVtrm_4a3fd79d09810
p2941
(dp2942
ssg136
(dp2943
g972
(dp2944
sg58
g2860
ssg1355
(dp2945
g508
g2919
sg42
g2838
sg216
(dp2946
sg778
(dp2947
ssg2429
(dp2948
g724
(dp2949
sg642
(dp2950
sg664
(dp2951
sg676
(dp2952
sg408
(dp2953
sg50
g2848
sg178
(dp2954
sg114
g2927
sg684
(dp2955
ssg140
(dp2956
g2468
(dp2957
ssg142
(dp2958
g316
(dp2959
ssg144
(dp2960
g1011
(dp2961
ssg146
(dp2962
g212
(dp2963
ssg148
(dp2964
g978
(dp2965
ssg152
(dp2966
g972
(dp2967
ssg154
(dp2968
g2811
(dp2969
sg132
g2942
ssg40
(dp2970
g2789
(dp2971
ssg158
(dp2972
g378
(dp2973
ssg160
(dp2974
g306
(dp2975
ssg162
(dp2976
g1485
(dp2977
ssg2442
(dp2978
g510
(dp2979
sg446
(dp2980
sg244
(dp2981
ssg166
(dp2982
g2520
(dp2983
sg2811
(dp2984
ssg2445
(dp2985
g834
(dp2986
ssg170
(dp2987
g1434
(dp2988
ssg2448
(dp2989
g266
(dp2990
sg850
(dp2991
sVtrm_502abeab4e1d8
p2992
g2895
sg710
(dp2993
sg494
(dp2994
ssg174
(dp2995
Vtrm_4a3fd79d0b0a6
p2996
g2815
ssg176
(dp2997
g1213
(dp2998
ssg178
(dp2999
g2429
g2954
ssg182
(dp3000
g2732
(dp3001
ssg186
(dp3002
g2692
(dp3003
ssg280
(dp3004
g2638
(dp3005
ssg2456
(dp3006
g650
(dp3007
sg736
(dp3008
sg842
(dp3009
ssg204
(dp3010
g260
(dp3011
sg588
(dp3012
sg396
(dp3013
ssg2459
(dp3014
g792
(dp3015
ssg208
(dp3016
g972
(dp3017
ssg212
(dp3018
g726
(dp3019
sg146
g2963
sg424
(dp3020
sg34
g2825
sg334
(dp3021
sg828
(dp3022
sg556
(dp3023
ssg216
(dp3024
g1355
g2946
sg850
(dp3025
sg2388
g2851
ssg220
(dp3026
g848
(dp3027
sVtrm_4fe39e4388409
p3028
(dp3029
sg48
g2845
sg508
g2920
sg462
(dp3030
sg868
(dp3031
sg170
g2988
ssg222
(dp3032
g598
(dp3033
ssg2466
(dp3034
g422
(dp3035
sg1245
g2807
ssg2468
(dp3036
g466
(dp3037
sg140
g2957
sg412
(dp3038
sg628
(dp3039
sg30
g2814
sg428
(dp3040
sg638
(dp3041
ssg230
(dp3042
g378
(dp3043
ssg232
(dp3044
g310
(dp3045
sg590
(dp3046
ssg234
(dp3047
g2473
(dp3048
sg702
(dp3049
ssg2473
(dp3050
g972
(dp3051
sg234
g3048
ssg238
(dp3052
g2520
(dp3053
ssg240
(dp3054
g2520
(dp3055
sg416
(dp3056
ssg242
(dp3057
g696
(dp3058
ssg244
(dp3059
g2376
g2802
sg2442
g2981
ssg246
(dp3060
g2777
(dp3061
ssg248
(dp3062
g2401
g2878
ssg2481
(dp3063
g598
(dp3064
sg44
g2841
ssg252
(dp3065
g508
g2910
ssg254
(dp3066
g2599
(dp3067
sg498
(dp3068
sg274
(dp3069
sg454
(dp3070
sg80
g2886
sg804
(dp3071
ssg256
(dp3072
g34
g2832
sg502
(dp3073
ssg258
(dp3074
g316
(dp3075
ssg260
(dp3076
g204
g3011
ssg262
(dp3077
g16
g2792
sg832
(dp3078
sg10
g2785
sg18
g2795
ssg264
(dp3079
g2552
(dp3080
ssg266
(dp3081
g850
(dp3082
sg2448
g2990
ssg268
(dp3083
g2765
(dp3084
ssg1400
(dp3085
g624
(dp3086
sg34
g2820
sg766
(dp3087
sg854
(dp3088
ssg272
(dp3089
g2705
(dp3090
sg306
(dp3091
sg148
g2965
ssg274
(dp3092
g484
(dp3093
sg446
(dp3094
sg254
g3069
sg786
(dp3095
ssg276
(dp3096
g2520
(dp3097
ssg278
(dp3098
g972
(dp3099
ssg194
(dp3100
g598
(dp3101
sg758
(dp3102
sg762
(dp3103
ssg282
(dp3104
Vtrm_4f4511e519b53
p3105
g2902
ssg286
(dp3106
g2862
(dp3107
sg82
g2888
ssg288
(dp3108
g2811
(dp3109
ssg290
(dp3110
g2667
(dp3111
sg2674
(dp3112
ssg292
(dp3113
g1062
(dp3114
ssg294
(dp3115
g626
(dp3116
ssg296
(dp3117
g420
(dp3118
sg122
g2930
sg666
(dp3119
sg28
g2812
sg288
g3109
sg166
g2984
sg700
(dp3120
sg654
(dp3121
sg1011
(dp3122
sg154
g2969
sg864
(dp3123
ssg2505
(dp3124
g612
(dp3125
ssg298
(dp3126
g598
(dp3127
ssg2508
(dp3128
g744
(dp3129
sg446
(dp3130
ssg302
(dp3131
g638
(dp3132
sg508
g2908
ssg304
(dp3133
Vtrm_557b4844ca14d
p3134
(dp3135
sg2692
(dp3136
ssg306
(dp3137
g630
(dp3138
sg2599
(dp3139
sg272
g3091
sg774
(dp3140
sg160
g2975
sg2388
g2850
sg850
(dp3141
ssg310
(dp3142
g232
g3045
sg378
(dp3143
sg352
(dp3144
ssg312
(dp3145
g598
(dp3146
ssg2515
(dp3147
g92
(dp3148
sg1076
(dp3149
ssg316
(dp3150
g858
(dp3151
sg572
(dp3152
sg142
g2959
sg530
(dp3153
sg258
g3075
sg826
(dp3154
sg320
(dp3155
sg356
(dp3156
ssg320
(dp3157
g316
g3155
ssg2254
(dp3158
g460
(dp3159
sg586
(dp3160
ssg2520
(dp3161
g240
g3055
sg238
g3053
sg548
(dp3162
sg166
g2983
sg816
(dp3163
sg380
(dp3164
sg1011
(dp3165
sg276
g3097
sg384
(dp3166
ssg2522
(dp3167
g830
(dp3168
sg376
(dp3169
sg476
(dp3170
ssg328
(dp3171
g2644
(dp3172
ssg330
(dp3173
g446
(dp3174
sg656
(dp3175
ssg2526
(dp3176
g660
(dp3177
sg12
g2787
sg780
(dp3178
sg434
(dp3179
sg442
g2901
sg686
(dp3180
ssg332
(dp3181
g2552
(dp3182
sVtrm_5595be14a57c5
p3183
(dp3184
ssg334
(dp3185
g212
g3021
ssg336
(dp3186
Vtrm_4a3fd79d0aa2f
p3187
(dp3188
ssg2531
(dp3189
g818
(dp3190
ssg348
(dp3191
g2789
(dp3192
ssg2534
(dp3193
g814
(dp3194
sg772
(dp3195
ssg352
(dp3196
g310
g3144
sg378
(dp3197
ssg356
(dp3198
g316
g3156
ssg358
(dp3199
g2862
(dp3200
ssg360
(dp3201
g414
(dp3202
ssg362
(dp3203
g972
(dp3204
ssg366
(dp3205
g1104
(dp3206
ssg368
(dp3207
g466
(dp3208
ssg374
(dp3209
g2622
(dp3210
ssg376
(dp3211
g2522
g3169
ssg378
(dp3212
g310
g3143
sg444
(dp3213
sg352
g3197
sg230
g3043
sg158
g2973
ssg380
(dp3214
g2520
g3164
sg332
g3184
ssg384
(dp3215
g2520
g3166
ssg386
(dp3216
g430
(dp3217
sg2732
(dp3218
sg292
g3114
ssg388
(dp3219
g2552
(dp3220
ssg390
(dp3221
g788
(dp3222
sg644
(dp3223
ssg392
(dp3224
g2721
(dp3225
ssg2552
(dp3226
g2573
(dp3227
sg388
g3220
sg446
(dp3228
sg126
g2933
sg332
g3182
sg264
g3080
ssg396
(dp3229
g2605
(dp3230
sg204
g3013
ssg400
(dp3231
g184
(dp3232
ssg404
(dp3233
g2376
g2801
sg2599
(dp3234
ssg84
(dp3235
g1104
(dp3236
ssg408
(dp3237
g2429
g2953
ssg654
(dp3238
g2811
g3121
ssg412
(dp3239
g40
g2971
sg2468
g3038
sg698
(dp3240
sg14
g2790
sg542
(dp3241
sg348
g3192
ssg414
(dp3242
g360
g3202
sg130
g2938
ssg416
(dp3243
Vtrm_4a3fd79d09827
p3244
g3056
ssg418
(dp3245
g1104
(dp3246
ssg420
(dp3247
g2811
g3118
ssg422
(dp3248
g224
g3035
ssg424
(dp3249
g212
g3020
ssg426
(dp3250
g2605
(dp3251
ssg428
(dp3252
g2468
g3040
ssg430
(dp3253
g1062
g3217
ssg432
(dp3254
g2671
(dp3255
ssg434
(dp3256
g2526
g3179
ssg864
(dp3257
g2811
g3123
ssg2573
(dp3258
g394
g3227
ssg92
(dp3259
g2515
g3148
ssg444
(dp3260
g378
g3213
ssg664
(dp3261
g2429
g2951
ssg448
(dp3262
g1011
(dp3263
ssg450
(dp3264
g34
g2836
sg704
(dp3265
ssg452
(dp3266
g1245
g2805
ssg454
(dp3267
g254
g3070
sg646
(dp3268
sg446
(dp3269
ssg458
(dp3270
g34
g2833
ssg460
(dp3271
g2254
g3159
ssg2584
(dp3272
g1434
g3030
sg616
(dp3273
sg48
g2846
ssg464
(dp3274
g1213
(dp3275
sg796
(dp3276
sg112
g2925
ssg466
(dp3277
g2468
g3037
sg368
g3208
ssg468
(dp3278
g2644
(dp3279
ssg470
(dp3280
g34
g2826
ssg472
(dp3281
g34
g2828
ssg474
(dp3282
g2644
(dp3283
ssg476
(dp3284
g2522
g3170
ssg478
(dp3285
g2622
(dp3286
ssg484
(dp3287
g274
g3093
ssg2595
(dp3288
g34
g2834
sg534
(dp3289
ssg488
(dp3290
g2644
(dp3291
ssg494
(dp3292
g2448
g2994
ssg2599
(dp3293
g646
(dp3294
sg610
(dp3295
sg446
(dp3296
sg306
g3139
sg254
g3067
sg632
(dp3297
sg744
(dp3298
sg850
(dp3299
sg404
g3234
ssg498
(dp3300
g254
g3068
ssg500
(dp3301
g834
(dp3302
sg508
g2911
ssg502
(dp3303
g840
(dp3304
sg2862
(dp3305
sg176
g2998
sVtrm_4a3fd79d0a533
p3306
g3073
sg532
(dp3307
sg796
(dp3308
sg852
(dp3309
sg524
(dp3310
sg544
(dp3311
sg464
g3275
ssg504
(dp3312
g2644
(dp3313
ssg2605
(dp3314
g396
g3230
sg426
g3251
sg556
(dp3315
ssg510
(dp3316
g2442
g2979
ssg512
(dp3317
g2713
(dp3318
ssg2609
(dp3319
g692
(dp3320
ssg518
(dp3321
g88
g2897
sg508
g2909
ssg522
(dp3322
g2644
(dp3323
ssg524
(dp3324
g1213
g3310
ssg526
(dp3325
g972
(dp3326
ssg1076
(dp3327
g314
g3149
sg184
(dp3328
ssg530
(dp3329
g316
g3153
ssg532
(dp3330
g1213
g3307
ssg534
(dp3331
g486
g3289
ssg540
(dp3332
g2401
g2879
ssg542
(dp3333
g2789
g3241
ssg544
(dp3334
g1213
g3311
ssg2622
(dp3335
g478
g3286
sg598
(dp3336
sg690
(dp3337
sg374
g3210
ssg548
(dp3338
g2520
g3162
ssg550
(dp3339
g1104
(dp3340
sg406
g2890
sg806
(dp3341
ssg552
(dp3342
Vtrm_4a3fd79d0ae3d
p3343
(dp3344
ssg2627
(dp3345
g22
g2800
sg824
(dp3346
sg102
g2906
ssg556
(dp3347
g2605
g3315
sg212
g3023
ssg562
(dp3348
g620
g2936
sg2713
(dp3349
ssg568
(dp3350
g2401
g2877
sg1011
(dp3351
ssg2632
(dp3352
g580
(dp3353
ssg572
(dp3354
g316
g3152
ssg574
(dp3355
g2397
g2868
ssg576
(dp3356
g162
g2977
sg1245
g2806
ssg580
(dp3357
g2632
g3353
ssg2638
(dp3358
g712
(dp3359
sg280
g3005
sg46
g2843
sg2713
(dp3360
sg652
(dp3361
sg798
(dp3362
sg70
g2874
sg800
(dp3363
sg718
(dp3364
ssg586
(dp3365
g2254
g3160
ssg588
(dp3366
g204
g3012
sg1011
(dp3367
ssg590
(dp3368
Vtrm_4a3fd79d0b689
p3369
g3046
ssg592
(dp3370
g2773
(dp3371
ssg2644
(dp3372
g132
g2940
sg522
g3323
sg468
g3279
sg328
g3172
sg504
g3313
sg474
g3283
sg410
(dp3373
sg488
g3291
ssg2646
(dp3374
g626
(dp3375
ssg598
(dp3376
g2481
g3064
sg194
g3101
sg312
g3146
sg222
g3033
sg614
(dp3377
sg76
g2882
sg298
g3127
sg838
(dp3378
sg546
g3336
ssg600
(dp3379
Vtrm_4e5badf095692
p3380
(dp3381
ssg602
(dp3382
g106
g2922
ssg604
(dp3383
g742
(dp3384
ssg2652
(dp3385
g972
(dp3386
sg702
(dp3387
ssg184
(dp3388
g400
g3232
sg1076
g3328
ssg612
(dp3389
g2505
g3125
ssg2656
(dp3390
g598
g3377
sg792
(dp3391
ssg616
(dp3392
g462
g3273
sg1434
g3029
ssg618
(dp3393
g1718
(dp3394
ssg128
(dp3395
g34
g2829
ssg624
(dp3396
g84
g3236
sg418
g3246
sg1400
g3086
sg366
g3206
sg550
g3340
sg34
g2827
ssg626
(dp3397
g294
g3116
sg2646
g3375
sg2732
(dp3398
ssg628
(dp3399
g358
g3200
sg60
g2863
sg730
(dp3400
sg286
g3107
sg2468
g3039
sg502
g3305
sg760
(dp3401
ssg630
(dp3402
g306
g3138
ssg632
(dp3403
g2756
(dp3404
sg2599
g3297
ssg634
(dp3405
g2777
(dp3406
ssg2667
(dp3407
g446
(dp3408
sg290
g3111
sg126
g2934
ssg638
(dp3409
Vtrm_4a3fd79d0b9e9
p3410
g3132
sg2468
g3041
ssg640
(dp3411
g34
g2819
ssg2671
(dp3412
g2429
g2950
sg432
g3255
ssg644
(dp3413
g390
g3223
ssg2674
(dp3414
Vtrm_4a3fd79d0a30c
p3415
g3268
sg290
g3112
sg2599
g3294
ssg648
(dp3416
g2692
(dp3417
sg304
g3135
ssg650
(dp3418
g600
g3381
sg2456
g3007
ssg652
(dp3419
g2638
g3361
ssg410
(dp3420
g2644
g3373
ssg656
(dp3421
g330
g3175
sg88
g2898
sg794
(dp3422
sg508
g2918
sg668
(dp3423
sg42
g2839
sg870
(dp3424
ssg660
(dp3425
g2526
g3177
ssg446
(dp3426
g496
g3296
sg164
g2980
sg1553
g3094
sg394
g3228
sg330
g3174
sg454
g3269
sg716
(dp3427
sg636
g3408
sg34
g2822
sg300
g3130
ssg666
(dp3428
g2811
g3119
ssg668
(dp3429
g656
g3423
ssg972
(dp3430
g236
g3051
sg278
g3099
sg362
g3204
sg526
g3326
sg208
g3017
sg136
g2944
sg866
(dp3431
sg152
g2967
sg606
g3386
ssg672
(dp3432
g850
(dp3433
ssg674
(dp3434
g2189
(dp3435
ssg676
(dp3436
g2429
g2952
ssg684
(dp3437
g2429
g2955
ssg686
(dp3438
g2526
g3180
ssg610
(dp3439
g2599
g3295
ssg2692
(dp3440
g648
g3417
sg2622
g3337
sg304
g3136
sg186
g3003
ssg692
(dp3441
g2609
g3320
ssg20
(dp3442
g696
(dp3443
ssg696
(dp3444
g2721
(dp3445
sg20
g3443
sg242
g3058
ssg698
(dp3446
g2789
g3240
ssg700
(dp3447
g2811
g3120
ssg702
(dp3448
g234
g3049
sg2652
g3387
ssg704
(dp3449
Vtrm_4a3fd79d09e87
p3450
g3265
ssg706
(dp3451
g1245
g2808
ssg708
(dp3452
g34
g2823
ssg710
(dp3453
g2448
g2993
ssg712
(dp3454
g2638
g3359
ssg2705
(dp3455
g272
g3090
sg446
g3427
ssg718
(dp3456
g2638
g3364
ssg720
(dp3457
Vtrm_557b48e337218
p3458
g2796
ssg2189
(dp3459
g674
g3435
ssg724
(dp3460
g2429
g2949
ssg726
(dp3461
g212
g3019
ssg730
(dp3462
g2862
g3400
sg2391
g2855
ssg2713
(dp3463
g562
g3349
sg512
g3318
sg582
g3360
ssg736
(dp3464
g2456
g3008
ssg742
(dp3465
g604
g3384
ssg744
(dp3466
g2508
g3129
sg2599
g3298
ssg746
(dp3467
g2149
g2904
sg2397
g2869
ssg2719
(dp3468
g78
g2884
sg2732
(dp3469
sg870
(dp3470
ssg2721
(dp3471
g696
g3445
sg392
g3225
ssg1011
(dp3472
g324
g3165
sg568
g3351
sg448
g3263
sg296
g3122
sg1705
g3367
sg68
g2872
sg144
g2961
ssg2724
(dp3473
g36
g2876
ssg758
(dp3474
g194
g3102
ssg760
(dp3475
g2862
g3401
ssg762
(dp3476
g194
g3103
ssg764
(dp3477
g34
g2835
ssg766
(dp3478
g336
g3188
sg1400
g3087
ssg768
(dp3479
g438
(dp3480
sg2767
(dp3481
ssg2732
(dp3482
g386
g3218
sg748
g3469
sg508
g2913
sg54
g2853
sg182
g3001
sg626
g3398
ssg772
(dp3483
g508
g2914
sg2534
g3195
ssg774
(dp3484
g306
g3140
ssg778
(dp3485
g1355
g2947
sg2756
(dp3486
ssg780
(dp3487
g2526
g3178
ssg786
(dp3488
g274
g3095
ssg788
(dp3489
g390
g3222
ssg896
(dp3490
g34
g2824
sg822
(dp3491
ssg792
(dp3492
g2656
g3391
sg2459
g3015
ssg794
(dp3493
g656
g3422
ssg796
(dp3494
g1213
g3308
sg2924
g3276
ssg798
(dp3495
g2638
g3362
ssg800
(dp3496
g2638
g3363
ssg804
(dp3497
g254
g3071
ssg806
(dp3498
g957
g3341
ssg810
(dp3499
g1245
g2804
ssg812
(dp3500
g508
g2915
ssg814
(dp3501
g508
g2912
sg2534
g3194
ssg816
(dp3502
g2520
g3163
ssg818
(dp3503
g2531
g3190
sg508
g2917
ssg822
(dp3504
g790
g3491
ssg824
(dp3505
g554
g3346
sg24
g2809
ssg826
(dp3506
g316
g3154
ssg2756
(dp3507
g778
g3486
sg632
g3404
ssg828
(dp3508
g2765
(dp3509
sg618
g3394
sg212
g3022
ssg830
(dp3510
g2522
g3168
ssg832
(dp3511
g2372
g2793
sg262
g3078
ssg834
(dp3512
g500
g3302
sg2445
g2986
ssg838
(dp3513
g598
g3378
ssg840
(dp3514
g1213
g3304
ssg842
(dp3515
g2456
g3009
ssg2765
(dp3516
g34
g2831
sg268
g3084
sg828
g3509
ssg2767
(dp3517
g768
g3481
ssg848
(dp3518
g1434
g3027
ssg850
(dp3519
g266
g3082
sg88
g2894
sg62
g2865
sg496
g3299
sg172
g2991
sg306
g3141
sg508
g2916
sg216
g3025
sg672
g3433
ssg852
(dp3520
g1213
g3309
ssg854
(dp3521
g1400
g3088
ssg2773
(dp3522
g592
g3371
ssg858
(dp3523
g316
g3151
ssg860
(dp3524
g2403
g2881
ssg2777
(dp3525
g246
g3061
sg634
g3406
ssg438
(dp3526
Vtrm_4a3fd79d0b920
p3527
g3480
ssg866
(dp3528
g972
g3431
ssg868
(dp3529
g1434
g3031
sg552
g3344
ssg870
(dp3530
g2719
g3470
sg656
g3424
sssg1409
(dp3531
sg1411
g873
sg1412
g2783
sbs.