(dp0
S'partof'
p1
ccopy_reg
_reconstructor
p2
(cnetworkx.classes.graph
Graph
p3
c__builtin__
object
p4
Ntp5
Rp6
(dp7
S'node'
p8
(dp9
Vtrm_4a3fd79d0aa6a
p10
(dp11
sVtrm_4a3fd79d0a300
p12
(dp13
sVtrm_5029515e29f7f
p14
(dp15
sVtrm_56798c5f25b0c
p16
(dp17
sVtrm_4a3fd79d0b967
p18
(dp19
sVtrm_4a3fd79d0a781
p20
(dp21
sVtrm_4a3fd79d0b5a7
p22
(dp23
sVtrm_4a3fd79d09902
p24
(dp25
sVtrm_4a3fd79d0afcf
p26
(dp27
sVtrm_4a3fd79d0a78d
p28
(dp29
sVtrm_4a3fd79d0b160
p30
(dp31
sVtrm_502ad54c11389
p32
(dp33
sVtrm_4a3fd79d0b518
p34
(dp35
sVtrm_4a3fd79d0a966
p36
(dp37
sVtrm_5029751d118c4
p38
(dp39
sVtrm_557b495cdde57
p40
(dp41
sVtrm_4a3fd79d0a04f
p42
(dp43
sVtrm_551f0f822d95e
p44
(dp45
sVtrm_4a3fd79d0a775
p46
(dp47
sVtrm_4a3fd79d0b786
p48
(dp49
sVtrm_4a3fd79d09ae1
p50
(dp51
sVtrm_4a3fd79d0b020
p52
(dp53
sVtrm_557b471bc6cd8
p54
(dp55
sVtrm_4a3fd79d09e9e
p56
(dp57
sVtrm_4a3fd79d0b548
p58
(dp59
sVtrm_4a3fd79d0ba01
p60
(dp61
sVtrm_5024002a85b1f
p62
(dp63
sVtrm_4a3fd79d0a723
p64
(dp65
sVtrm_4a3fd79d0a891
p66
(dp67
sVtrm_500d8c8fcc520
p68
(dp69
sVtrm_4a3fd79d0b434
p70
(dp71
sVtrm_4a3fd79d0a483
p72
(dp73
sVtrm_4a3fd79d0b67d
p74
(dp75
sVtrm_557b476527a27
p76
(dp77
sVtrm_4a3fd79d09713
p78
(dp79
sVtrm_4a3fd79d0b607
p80
(dp81
sVtrm_4a3fd79d0b440
p82
(dp83
sVtrm_4a3fd79d0b37a
p84
(dp85
sVtrm_51a690a7492eb
p86
(dp87
sVtrm_4b65edcf9129a
p88
(dp89
sVtrm_55ef153d47bc0
p90
(dp91
sVtrm_4a3fd79d0a252
p92
(dp93
sVtrm_4a3fd79d0a398
p94
(dp95
sVtrm_559f0a129c136
p96
(dp97
sVtrm_4e5506161998c
p98
(dp99
sVtrm_559f09a5cdca9
p100
(dp101
sVtrm_4a3fd79d0b892
p102
(dp103
sVtrm_4a3fd79d0b043
p104
(dp105
sVtrm_4a3fd79d0989a
p106
(dp107
sVtrm_5519b384d446c
p108
(dp109
sVtrm_5521737cd6450
p110
(dp111
sVtrm_4a3fd79d0af94
p112
(dp113
sVtrm_4d21e9a7dd8ca
p114
(dp115
sVtrm_4a3fd79d09c1c
p116
(dp117
sVtrm_4a3fd79d0b4cd
p118
(dp119
sVtrm_558c7b14c076e
p120
(dp121
sVtrm_4a3fd79d0ba30
p122
(dp123
sVtrm_5595bd89d77c6
p124
(dp125
sVtrm_4a3fd79d0b1b2
p126
(dp127
sVtrm_4a3fd79d09c28
p128
(dp129
sVtrm_4a3fd79d0ba0d
p130
(dp131
sVtrm_4fafd1626bf2b
p132
(dp133
sVtrm_4a3fd79d0b0f7
p134
(dp135
sVtrm_4a3fd79d0a72e
p136
(dp137
sVtrm_557b4993a0fdd
p138
(dp139
sVtrm_4a3fd79d0b613
p140
(dp141
sVtrm_4a3fd79d0b406
p142
(dp143
sVtrm_4fe8edc62f613
p144
(dp145
sVtrm_4ff36d79c26c6
p146
(dp147
sVtrm_4a3fd79d09b1c
p148
(dp149
sVtrm_5524572b66764
p150
(dp151
sVtrm_4b65259eeee34
p152
(dp153
sVtrm_4a3fd79d0a607
p154
(dp155
sVtrm_4a3fd79d0ae93
p156
(dp157
sVtrm_5519b7525d7a2
p158
(dp159
sVtrm_4c3e04d656f06
p160
(dp161
sVtrm_4a3fd79d0b58f
p162
(dp163
sVtrm_4a3fd79d0aeb6
p164
(dp165
sVtrm_4a3fd79d0a7ec
p166
(dp167
sVtrm_4a3fd79d0a33b
p168
(dp169
sVtrm_4a3fd79d0b1f7
p170
(dp171
sVtrm_4a3fd79d0ab70
p172
(dp173
sVtrm_4a3fd79d0b1e0
p174
(dp175
sVtrm_4a3fd79d0ac61
p176
(dp177
sVtrm_4a3fd79d0abb6
p178
(dp179
sVtrm_4a3fd79d09a8f
p180
(dp181
sVtrm_557b4b9ccdc4a
p182
(dp183
sVtrm_558c7ae1eaf86
p184
(dp185
sVtrm_4a3fd79d0aab0
p186
(dp187
sVtrm_4b45f467bf238
p188
(dp189
sVtrm_4a3fd79d0ba25
p190
(dp191
sVtrm_4a3fd79d0b8f0
p192
(dp193
sVtrm_4a3fd79d0abaa
p194
(dp195
sVtrm_55c298bbe56d5
p196
(dp197
sVtrm_4a3fd79d09aa7
p198
(dp199
sVtrm_4a3fd79d0af7d
p200
(dp201
sVtrm_50297454e516b
p202
(dp203
sVtrm_4a3fd79d0b826
p204
(dp205
sVtrm_4a3fd79d0b583
p206
(dp207
sVtrm_4a3fd79d0b02c
p208
(dp209
sVtrm_4a3fd79d09e6f
p210
(dp211
sVtrm_4a3fd79d098c9
p212
(dp213
sVtrm_5159beaf80413
p214
(dp215
sVtrm_4e89aebaa311d
p216
(dp217
sVtrm_4a3fd79d0ab7c
p218
(dp219
sVtrm_559f0a5b4cd36
p220
(dp221
sVtrm_4a3fd79d09a61
p222
(dp223
sVtrm_4a3fd79d09a3d
p224
(dp225
sVtrm_55ce71c47f37b
p226
(dp227
sVtrm_557b4aa070c10
p228
(dp229
sVtrm_4a3fd79d0a038
p230
(dp231
sVtrm_4a3fd79d0b507
p232
(dp233
sVtrm_557b4ab076338
p234
(dp235
sVtrm_4a3fd79d09af8
p236
(dp237
sVtrm_4a3fd79d0a431
p238
(dp239
sVtrm_4a3fd79d0adb7
p240
(dp241
sVtrm_4a3fd79d0ba54
p242
(dp243
sVtrm_4a3fd79d0b8fc
p244
(dp245
sVtrm_4a3fd79d097b4
p246
(dp247
sVtrm_4a3fd79d0af71
p248
(dp249
sVtrm_4a3fd79d09707
p250
(dp251
sVtrm_551f0d8c69a13
p252
(dp253
sVtrm_56006cb5a61ac
p254
(dp255
sVtrm_4e6127bd91be9
p256
(dp257
sVtrm_4a3fd79d09849
p258
(dp259
sVtrm_4a3fd79d0a83f
p260
(dp261
sVtrm_4a3fd79d0a504
p262
(dp263
sVtrm_4a3fd79d0b9dd
p264
(dp265
sVtrm_502954662d63e
p266
(dp267
sVtrm_4a3fd79d09a84
p268
(dp269
sVtrm_55b6b9a666604
p270
(dp271
sVtrm_4a3fd79d0aabc
p272
(dp273
sVtrm_557b49851e991
p274
(dp275
sVtrm_5159c94667677
p276
(dp277
sVtrm_4a3fd79d0b279
p278
(dp279
sVtrm_55ce70b20186b
p280
(dp281
sVtrm_55ef1fd2bc418
p282
(dp283
sVtrm_557b4a81a4a17
p284
(dp285
sVtrm_4a3fd79d0b5e3
p286
(dp287
sVtrm_4a3fd79d0b077
p288
(dp289
sVtrm_4a3fd79d0b64e
p290
(dp291
sVtrm_4b7c270940f9d
p292
(dp293
sVtrm_4a3fd79d0995e
p294
(dp295
sVtrm_4fea04a02ce37
p296
(dp297
sVtrm_4a3fd79d0a32f
p298
(dp299
sVtrm_4e61264db33d4
p300
(dp301
sVtrm_4a3fd79d0ba48
p302
(dp303
sVtrm_4a3fd79d0b95b
p304
(dp305
sVtrm_4a3fd79d0af66
p306
(dp307
sVtrm_5521a0512df9a
p308
(dp309
sVtrm_4a3fd79d0ac87
p310
(dp311
sVtrm_4a3fd79d0a1f4
p312
(dp313
sVtrm_4a3fd79d09be2
p314
(dp315
sVtrm_502c343d20523
p316
(dp317
sVtrm_4a3fd79d0b89e
p318
(dp319
sVtrm_4a3fd79d0ac9e
p320
(dp321
sVtrm_4a3fd79d0b5ef
p322
(dp323
sVtrm_4a3fd79d09b04
p324
(dp325
sVtrm_558c73f3c8c6f
p326
(dp327
sVtrm_4ebfe9a465449
p328
(dp329
sVtrm_4a3fd79d0a0a1
p330
(dp331
sVtrm_4a3fd79d09953
p332
(dp333
sVtrm_4f33e65d0daac
p334
(dp335
sVtrm_4a3fd79d0a642
p336
(dp337
sVtrm_4fb3f4d58aeb0
p338
(dp339
sVtrm_4a3fd79d0b938
p340
(dp341
sVtrm_4fea017794d1d
p342
(dp343
sVtrm_4fe9fae4321e7
p344
(dp345
sVtrm_4a3fd79d0a48e
p346
(dp347
sVtrm_552185f5cda66
p348
(dp349
sVtrm_4feb44e5ae25b
p350
(dp351
sVtrm_5159c80c1dd24
p352
(dp353
sVtrm_4a3fd79d09aed
p354
(dp355
sVtrm_500d8bcf5f29a
p356
(dp357
sVtrm_4a3fd79d09de4
p358
(dp359
sVtrm_4a3fd79d0b247
p360
(dp361
sVtrm_4a3fd79d0b1d5
p362
(dp363
sVtrm_4a3fd79d0ba77
p364
(dp365
sVtrm_4a3fd79d0b238
p366
(dp367
sVtrm_558c7439832d9
p368
(dp369
sVtrm_558c736199abd
p370
(dp371
sVtrm_567982752ff4a
p372
(dp373
sVtrm_4a3fd79d0b083
p374
(dp375
sVtrm_4fea1aeaa7b17
p376
(dp377
sVtrm_4a3fd79d09bee
p378
(dp379
sVtrm_4a3fd79d0b802
p380
(dp381
sVtrm_4a3fd79d0aaa4
p382
(dp383
sVtrm_55b6b9d7c9435
p384
(dp385
sVtrm_502ab8dd991bf
p386
(dp387
sVtrm_5159cb12a0f92
p388
(dp389
sVtrm_557b4891e9265
p390
(dp391
sVtrm_4a3fd79d09bbf
p392
(dp393
sVtrm_4a3fd79d09bb3
p394
(dp395
sVtrm_557b49ad14adf
p396
(dp397
sVtrm_4a3fd79d0b8e5
p398
(dp399
sVtrm_4a3fd79d09b10
p400
(dp401
sVtrm_5154b2f947fe9
p402
(dp403
sVtrm_4a3fd79d0a73a
p404
(dp405
sVtrm_4a3fd79d09d93
p406
(dp407
sVtrm_4a3fd79d0b4d8
p408
(dp409
sVtrm_5519b92bde7dc
p410
(dp411
sVtrm_5519ba1746e95
p412
(dp413
sVtrm_557b4855a12b4
p414
(dp415
sVtrm_5519bb7767d98
p416
(dp417
sVtrm_4a3fd79d0b8c1
p418
(dp419
sVtrm_4a3fd79d0b392
p420
(dp421
sVtrm_551f11bb8f6a8
p422
(dp423
sVtrm_4a3fd79d0a17f
p424
(dp425
sVtrm_4a3fd79d0a769
p426
(dp427
sVtrm_4a3fd79d0b87a
p428
(dp429
sVtrm_4a3fd79d0ac30
p430
(dp431
sVtrm_4a3fd79d098bd
p432
(dp433
sVtrm_4a3fd79d0b3fa
p434
(dp435
sVtrm_4a3fd79d0b792
p436
(dp437
sVtrm_55c6f58e77fbe
p438
(dp439
sVtrm_4a3fd79d0b9ad
p440
(dp441
sVtrm_4a3fd79d0990e
p442
(dp443
sVtrm_55ef3ba010121
p444
(dp445
sVtrm_4a3fd79d0ba60
p446
(dp447
sVtrm_4a3fd79d0a196
p448
(dp449
sVtrm_4fe39e4388409
p450
(dp451
sVtrm_558c73b3663a6
p452
(dp453
sVtrm_52b5f1ef4f9cc
p454
(dp455
sVtrm_4a3fd79d09735
p456
(dp457
sVtrm_4a3fd79d0b55f
p458
(dp459
sVtrm_557b494ca540d
p460
(dp461
sVtrm_4a3fd79d0b943
p462
(dp463
sVtrm_557b47abe9a34
p464
(dp465
sVtrm_558c7b5228ed4
p466
(dp467
sVtrm_4a3fd79d0b8cd
p468
(dp469
sVtrm_557b491318742
p470
(dp471
sVtrm_4a3fd79d096fc
p472
(dp473
sVtrm_557b4b47d994a
p474
(dp475
sVtrm_557b4a913f8cc
p476
(dp477
sVtrm_4b75ed06c917d
p478
(dp479
sVtrm_4c3e05903e4bb
p480
(dp481
sVtrm_4a3fd79d0b53c
p482
(dp483
sVtrm_4b65edcf8bc43
p484
(dp485
sVtrm_4a3fd79d09ab2
p486
(dp487
sVtrm_4a3fd79d09e35
p488
(dp489
sVtrm_4a3fd79d0b86e
p490
(dp491
sVtrm_4a3fd79d0b386
p492
(dp493
sVtrm_502bdc6bdaa2b
p494
(dp495
sVtrm_4a3fd79d0b665
p496
(dp497
sVtrm_557b4a7315f1b
p498
(dp499
sVtrm_4a3fd79d0a833
p500
(dp501
sVtrm_4a3fd79d0a20c
p502
(dp503
sVtrm_4a3fd79d0ab59
p504
(dp505
sVtrm_4a3fd79d09d35
p506
(dp507
sVtrm_4a3fd79d0b2b4
p508
(dp509
sVtrm_4a3fd79d0a281
p510
(dp511
sVtrm_4a3fd79d0ba19
p512
(dp513
sVtrm_4a3fd79d0afda
p514
(dp515
sVtrm_557b4844ca14d
p516
(dp517
sVtrm_4f4511e519b53
p518
(dp519
sVtrm_4b6525253c63f
p520
(dp521
sVtrm_4a3fd79d0a116
p522
(dp523
sVtrm_4a3fd79d0affd
p524
(dp525
sVtrm_4ff1fc04e22e8
p526
(dp527
sVtrm_4aae62e4ad209
p528
(dp529
sVtrm_4a3fd79d0a613
p530
(dp531
sVtrm_4a3fd79d0ad4c
p532
(dp533
sVtrm_4a3fd79d09a49
p534
(dp535
sVtrm_4a3fd79d0a05b
p536
(dp537
sVtrm_4a3fd79d0b4b5
p538
(dp539
sVtrm_4a3fd79d098a6
p540
(dp541
sVtrm_4a3fd79d0ba6c
p542
(dp543
sVtrm_4a3fd79d0b972
p544
(dp545
sVtrm_557b474e2b578
p546
(dp547
sVtrm_4a3fd79d09cae
p548
(dp549
ssS'node_dict_factory'
p550
c__builtin__
dict
p551
sS'edge_attr_dict_factory'
p552
g551
sS'edge'
p553
(dp554
g10
(dp555
g186
(dp556
ssg12
(dp557
g116
(dp558
ssg14
(dp559
g538
(dp560
sg350
(dp561
ssg16
(dp562
g210
(dp563
ssg18
(dp564
g42
(dp565
sg280
(dp566
sg60
(dp567
ssg20
(dp568
g426
(dp569
ssg22
(dp570
g364
(dp571
sg122
(dp572
sg44
(dp573
sg512
(dp574
sg190
(dp575
sg480
(dp576
sg252
(dp577
sg378
(dp578
sg384
(dp579
sg446
(dp580
sg160
(dp581
sg192
(dp582
sg230
(dp583
sg130
(dp584
sg542
(dp585
sg422
(dp586
sg270
(dp587
sg548
(dp588
ssg24
(dp589
g150
(dp590
sg322
(dp591
sg348
(dp592
sg442
(dp593
sg118
(dp594
sg376
(dp595
sg488
(dp596
sg286
(dp597
ssg26
(dp598
g230
(dp599
ssg28
(dp600
g490
(dp601
sg426
(dp602
ssg30
(dp603
g334
(dp604
ssg32
(dp605
g314
(dp606
ssg34
(dp607
g426
(dp608
ssg36
(dp609
g426
(dp610
ssg38
(dp611
g538
(dp612
ssg40
(dp613
g388
(dp614
ssg42
(dp615
Vtrm_4a3fd79d0b95b
p616
(dp617
sg244
(dp618
sVtrm_4a3fd79d0b967
p619
g565
ssg44
(dp620
g22
g573
ssg46
(dp621
g490
(dp622
ssg48
(dp623
g426
(dp624
ssg50
(dp625
g170
(dp626
sg486
(dp627
ssg52
(dp628
g118
(dp629
ssg54
(dp630
g214
(dp631
ssg56
(dp632
g132
(dp633
ssg58
(dp634
g492
(dp635
ssg60
(dp636
g304
(dp637
sg18
g567
ssg62
(dp638
Vtrm_4fe8edc62f613
p639
(dp640
sVtrm_4a3fd79d0ab70
p641
(dp642
ssg64
(dp643
Vtrm_4a3fd79d09c1c
p644
(dp645
sg344
(dp646
ssg66
(dp647
g398
(dp648
sg432
(dp649
sg200
(dp650
sg112
(dp651
ssg68
(dp652
g538
(dp653
ssg70
(dp654
g360
(dp655
ssg72
(dp656
g388
(dp657
ssg74
(dp658
g420
(dp659
sg246
(dp660
ssg76
(dp661
g546
(dp662
ssg78
(dp663
g170
(dp664
sg486
(dp665
ssg80
(dp666
g530
(dp667
sVtrm_4a3fd79d0a038
p668
(dp669
ssg82
(dp670
g426
(dp671
ssg84
(dp672
g492
(dp673
ssg86
(dp674
g448
(dp675
ssg88
(dp676
g426
(dp677
ssg90
(dp678
g464
(dp679
ssg92
(dp680
g190
(dp681
ssg94
(dp682
g382
(dp683
ssg96
(dp684
g248
(dp685
ssg98
(dp686
g450
(dp687
ssg100
(dp688
g196
(dp689
ssg102
(dp690
g426
(dp691
ssg104
(dp692
g228
(dp693
ssg106
(dp694
g360
(dp695
ssg108
(dp696
g528
(dp697
ssg110
(dp698
g426
(dp699
ssg112
(dp700
g66
g651
ssg114
(dp701
g532
(dp702
sg142
(dp703
ssg116
(dp704
g64
g645
sg12
g558
sg406
(dp705
sg170
(dp706
ssg118
(dp707
g52
g629
sg24
g594
sg342
(dp708
sg338
(dp709
ssg120
(dp710
g236
(dp711
ssg122
(dp712
g22
g572
ssg124
(dp713
g370
(dp714
ssg126
(dp715
g146
(dp716
ssg128
(dp717
g280
(dp718
sg524
(dp719
ssg130
(dp720
g218
(dp721
sg22
g584
ssg132
(dp722
g520
(dp723
sg56
g633
sg346
(dp724
ssg134
(dp725
g242
(dp726
ssg136
(dp727
g404
(dp728
ssg138
(dp729
g168
(dp730
sg230
(dp731
ssg140
(dp732
g530
(dp733
ssg142
(dp734
g114
g703
ssg144
(dp735
g336
(dp736
sg292
(dp737
sg172
(dp738
sg62
g640
ssg146
(dp739
g126
g716
ssg148
(dp740
g526
(dp741
sg400
(dp742
ssg150
(dp743
g24
g590
ssg152
(dp744
g300
(dp745
sg256
(dp746
ssg154
(dp747
g426
(dp748
ssg156
(dp749
g426
(dp750
ssg158
(dp751
g280
(dp752
ssg160
(dp753
g22
g581
ssg162
(dp754
g452
(dp755
sg164
(dp756
ssg164
(dp757
g368
(dp758
sg162
g756
sg380
(dp759
sg508
(dp760
ssg166
(dp761
g426
(dp762
sg316
(dp763
ssg168
(dp764
g430
(dp765
sg138
g730
ssg170
(dp766
g50
g626
sg354
(dp767
sg78
g664
sg116
g706
ssg172
(dp768
g62
g642
sg639
g738
ssg174
(dp769
g232
(dp770
ssg176
(dp771
g324
(dp772
ssg178
(dp773
g538
(dp774
sg486
(dp775
ssg180
(dp776
g486
(dp777
ssg182
(dp778
g368
(dp779
sg466
(dp780
ssg184
(dp781
g474
(dp782
ssg186
(dp783
g10
g556
ssg188
(dp784
g306
(dp785
ssg190
(dp786
g92
g681
sg22
g575
sg528
(dp787
ssg192
(dp788
g22
g582
ssg194
(dp789
g538
(dp790
sg486
(dp791
ssg196
(dp792
g100
g689
ssg198
(dp793
g250
(dp794
ssg200
(dp795
g66
g650
sg340
(dp796
ssg202
(dp797
g538
(dp798
ssg204
(dp799
Vtrm_4a3fd79d0b89e
p800
(dp801
sg426
(dp802
sg268
(dp803
ssg206
(dp804
g458
(dp805
sg426
(dp806
ssg208
(dp807
g240
(dp808
sg218
(dp809
ssg210
(dp810
g16
g563
ssg212
(dp811
g336
(dp812
ssg214
(dp813
g54
g631
ssg216
(dp814
g350
(dp815
ssg218
(dp816
g208
g809
sg308
(dp817
sg130
g721
sg402
(dp818
sg294
(dp819
sg272
(dp820
ssg220
(dp821
g388
(dp822
sg258
(dp823
ssg222
(dp824
g486
(dp825
ssg224
(dp826
g250
(dp827
sg310
(dp828
sg486
(dp829
ssg226
(dp830
g476
(dp831
ssg228
(dp832
g104
g693
sg238
(dp833
ssg230
(dp834
Vtrm_557b4993a0fdd
p835
g731
sg80
g669
sg248
(dp836
sg22
g583
sg26
g599
sg434
(dp837
sg464
(dp838
ssg232
(dp839
g174
g770
sg408
(dp840
ssg234
(dp841
g428
(dp842
ssg236
(dp843
g120
g711
ssg238
(dp844
g274
(dp845
sg228
g833
ssg240
(dp846
g208
g808
ssg242
(dp847
g134
g726
ssg244
(dp848
g42
g618
ssg246
(dp849
Vtrm_4a3fd79d0b67d
p850
g660
ssg248
(dp851
g456
(dp852
sg96
g685
sg230
g836
ssg250
(dp853
g224
g827
sg198
g794
sg486
(dp854
ssg252
(dp855
g22
g577
ssg254
(dp856
g470
(dp857
ssg256
(dp858
g152
g746
ssg258
(dp859
g220
g823
sg274
(dp860
sg328
(dp861
sg518
(dp862
sg470
(dp863
ssg260
(dp864
g460
(dp865
sg352
(dp866
ssg262
(dp867
g482
(dp868
sg426
(dp869
ssg264
(dp870
g538
(dp871
sg386
(dp872
ssg266
(dp873
g440
(dp874
ssg268
(dp875
Vtrm_4a3fd79d0b826
p876
g803
ssg270
(dp877
g22
g587
ssg272
(dp878
g218
g820
ssg274
(dp879
g430
(dp880
sg238
g845
sg258
g860
ssg276
(dp881
g520
(dp882
sg388
(dp883
ssg278
(dp884
g394
(dp885
ssg280
(dp886
g158
g752
sg18
g566
sg128
g718
ssg282
(dp887
g368
(dp888
ssg284
(dp889
g388
(dp890
ssg286
(dp891
g24
g597
ssg288
(dp892
g426
(dp893
ssg290
(dp894
g476
(dp895
ssg292
(dp896
g528
(dp897
sg144
g737
ssg294
(dp898
g218
g819
ssg296
(dp899
g330
(dp900
sg392
(dp901
ssg298
(dp902
Vtrm_4a3fd79d0b9ad
p903
(dp904
ssg300
(dp905
g152
g745
ssg302
(dp906
g324
(dp907
ssg304
(dp908
g42
g617
sg60
g637
ssg306
(dp909
g188
g785
ssg308
(dp910
g218
g817
ssg310
(dp911
g224
g828
ssg312
(dp912
g526
(dp913
sg488
(dp914
ssg314
(dp915
g32
g606
ssg316
(dp916
Vtrm_4a3fd79d0a7ec
p917
g763
ssg318
(dp918
g438
(dp919
sg454
(dp920
sg204
g801
ssg320
(dp921
g446
(dp922
ssg322
(dp923
g24
g591
ssg324
(dp924
g302
g907
sg176
g772
ssg326
(dp925
g368
(dp926
ssg328
(dp927
Vtrm_4a3fd79d09849
p928
g861
ssg330
(dp929
g296
g900
ssg332
(dp930
g538
(dp931
sg486
(dp932
ssg334
(dp933
g30
g604
ssg336
(dp934
g639
g736
sg212
g812
ssg338
(dp935
g538
(dp936
sg118
g709
sg486
(dp937
ssg340
(dp938
Vtrm_4a3fd79d0af7d
p939
g796
sg534
(dp940
ssg342
(dp941
g118
g708
ssg344
(dp942
g64
g646
ssg346
(dp943
g132
g724
ssg348
(dp944
g24
g592
ssg350
(dp945
g216
g815
sg14
g561
ssg352
(dp946
g260
g866
ssg354
(dp947
g426
(dp948
sg170
g767
ssg356
(dp949
g538
(dp950
ssg358
(dp951
g360
(dp952
ssg360
(dp953
g106
g695
sg444
(dp954
sg70
g655
sg358
g952
ssg362
(dp955
g514
(dp956
ssg364
(dp957
g22
g571
ssg366
(dp958
g426
(dp959
ssg368
(dp960
g282
g888
sg182
g779
sg326
g926
sg164
g758
ssg370
(dp961
g124
g714
ssg372
(dp962
g434
(dp963
ssg374
(dp964
g426
(dp965
ssg376
(dp966
g24
g595
ssg378
(dp967
g22
g578
ssg380
(dp968
g426
(dp969
sg454
(dp970
sVtrm_4a3fd79d0aeb6
p971
g759
ssg382
(dp972
g94
g683
ssg384
(dp973
g22
g579
ssg386
(dp974
g538
(dp975
sVtrm_4a3fd79d0b9dd
p976
g872
ssg388
(dp977
g220
g822
sVtrm_5159c94667677
p978
g883
sg520
(dp979
sg284
g890
sg72
g657
sg40
g614
ssg390
(dp980
g440
(dp981
ssg392
(dp982
Vtrm_4fea04a02ce37
p983
g901
ssg394
(dp984
g278
g885
ssg396
(dp985
g430
(dp986
ssg398
(dp987
g66
g648
ssg400
(dp988
g148
g742
ssg402
(dp989
g218
g818
ssg404
(dp990
g136
g728
ssg406
(dp991
g116
g705
ssg408
(dp992
g232
g840
ssg410
(dp993
g538
(dp994
ssg412
(dp995
g538
(dp996
sg486
(dp997
ssg414
(dp998
g516
(dp999
ssg416
(dp1000
g486
(dp1001
ssg418
(dp1002
g510
(dp1003
ssg420
(dp1004
g74
g659
sg478
(dp1005
ssg422
(dp1006
g22
g586
ssg424
(dp1007
Vtrm_4a3fd79d0a196
p1008
(dp1009
sg496
(dp1010
ssg426
(dp1011
g156
g750
sg20
g569
sg34
g608
sVtrm_4a3fd79d0a78d
p1012
g602
sg166
g762
sg436
(dp1013
sg48
g624
sg36
g610
sVtrm_4a3fd79d0b802
p1014
g969
sg204
g802
sg206
g806
sg82
g671
sg484
(dp1015
sVtrm_4a3fd79d0b53c
p1016
(dp1017
sg490
(dp1018
sg262
g869
sg110
g699
sg288
g893
sg354
g948
sg506
(dp1019
sg366
g959
sg504
(dp1020
sg154
g748
sg374
g965
sg88
g677
sg102
g691
ssg428
(dp1021
g234
g842
ssg430
(dp1022
g396
g986
sg274
g880
sg168
g765
sg502
(dp1023
sg456
(dp1024
ssg432
(dp1025
g66
g649
ssg434
(dp1026
g372
g963
sg230
g837
ssg436
(dp1027
g426
g1013
ssg438
(dp1028
g318
g919
ssg440
(dp1029
g298
g904
sg390
g981
sg266
g874
ssg442
(dp1030
g24
g593
ssg444
(dp1031
g360
g954
ssg446
(dp1032
g462
(dp1033
sg540
(dp1034
sg22
g580
sg320
g922
ssg448
(dp1035
g86
g675
sg424
g1009
ssg450
(dp1036
g98
g687
ssg452
(dp1037
g162
g755
ssg454
(dp1038
g380
g970
sg800
g920
ssg456
(dp1039
g248
g852
sg498
(dp1040
sVtrm_4a3fd79d0ac30
p1041
g1024
ssg458
(dp1042
g206
g805
ssg460
(dp1043
g260
g865
ssg462
(dp1044
Vtrm_4a3fd79d0ba60
p1045
g1033
ssg464
(dp1046
g90
g679
sg230
g838
ssg466
(dp1047
g182
g780
ssg468
(dp1048
g500
(dp1049
sg544
(dp1050
ssg470
(dp1051
g254
g857
sg258
g863
ssg472
(dp1052
g486
(dp1053
ssg474
(dp1054
g184
g782
ssg476
(dp1055
g290
g895
sg226
g831
ssg478
(dp1056
g420
g1005
ssg480
(dp1057
g22
g576
ssg482
(dp1058
g262
g868
sg426
g1017
ssg484
(dp1059
g426
g1015
ssg486
(dp1060
g472
g1053
sg332
g932
sg178
g775
sg180
g777
sg416
g1001
sg250
g854
sg412
g997
sg78
g665
sg338
g937
sg50
g627
sVtrm_4a3fd79d09a3d
p1061
g829
sg194
g791
sg222
g825
ssg488
(dp1062
g24
g596
sg312
g914
ssg490
(dp1063
g28
g601
sg46
g622
sg426
g1018
ssg492
(dp1064
g84
g673
sg58
g635
ssg494
(dp1065
g538
(dp1066
sg522
(dp1067
ssg496
(dp1068
g424
g1010
ssg498
(dp1069
g456
g1040
ssg500
(dp1070
g468
g1049
ssg502
(dp1071
g430
g1023
ssg504
(dp1072
g426
g1020
ssg506
(dp1073
Vtrm_4a3fd79d0a769
p1074
g1019
ssg508
(dp1075
g164
g760
ssg510
(dp1076
g418
g1003
ssg512
(dp1077
g22
g574
ssg514
(dp1078
g362
g956
ssg516
(dp1079
g414
g999
ssg518
(dp1080
g258
g862
ssg520
(dp1081
g132
g723
sg276
g882
sg388
g979
ssg522
(dp1082
Vtrm_502bdc6bdaa2b
p1083
g1067
ssg524
(dp1084
g536
(dp1085
sg128
g719
ssg526
(dp1086
g148
g741
sVtrm_4a3fd79d0a1f4
p1087
g913
ssg528
(dp1088
g190
g787
sg292
g897
sg108
g697
ssg530
(dp1089
g140
g733
sg80
g667
ssg532
(dp1090
g114
g702
ssg534
(dp1091
Vtrm_4a3fd79d0b938
p1092
g940
ssg536
(dp1093
Vtrm_4a3fd79d0affd
p1094
g1085
ssg538
(dp1095
g410
g994
sg332
g931
sg178
g774
sg14
g560
sg412
g996
sg386
g975
sg338
g936
sg202
g798
sg194
g790
sg68
g653
sg356
g950
sg38
g612
sg264
g871
sg494
g1066
ssg540
(dp1096
g1045
g1034
ssg542
(dp1097
g22
g585
ssg544
(dp1098
g468
g1050
ssg546
(dp1099
g76
g662
ssg548
(dp1100
g22
g588
sssS'graph'
p1101
(dp1102
sS'adjlist_dict_factory'
p1103
g551
sS'adj'
p1104
g554
sbsS'kindof'
p1105
g2
(g3
g4
Ntp1106
Rp1107
(dp1108
g8
(dp1109
Vtrm_4a3fd79d09a55
p1110
(dp1111
sg16
(dp1112
sVtrm_4a3fd79d0a781
p1113
(dp1114
sVtrm_557b493e4203a
p1115
(dp1116
sVtrm_557b48e337218
p1117
(dp1118
sVtrm_4a3fd79d0a6b9
p1119
(dp1120
sVtrm_568427366401c
p1121
(dp1122
sVtrm_4a3fd79d0a775
p1123
(dp1124
sVtrm_4a3fd79d0a072
p1125
(dp1126
sVtrm_4a3fd79d0b0a6
p1127
(dp1128
sVtrm_4a3fd79d0ba01
p1129
(dp1130
sVtrm_4a3fd79d0a891
p1131
(dp1132
sVtrm_557b476527a27
p1133
(dp1134
sVtrm_4a3fd79d0b607
p1135
(dp1136
sVtrm_557b493133416
p1137
(dp1138
sVtrm_4b65259eeee34
p1139
(dp1140
sVtrm_4a3fd79d0afda
p1141
(dp1142
sVtrm_4a3fd79d0a398
p1143
(dp1144
sVtrm_4a3fd79d09e13
p1145
(dp1146
sVtrm_4a3fd79d0a527
p1147
(dp1148
sg100
(dp1149
sVtrm_4a3fd79d0a803
p1150
(dp1151
sVtrm_4a3fd79d0a556
p1152
(dp1153
sVtrm_557b4b56de455
p1154
(dp1155
sVtrm_4a3fd79d0af94
p1156
(dp1157
sg128
(dp1158
sVtrm_4a3fd79d0ba0d
p1159
(dp1160
sVtrm_558c736199abd
p1161
(dp1162
sVtrm_4c3e04d656f06
p1163
(dp1164
sVtrm_4a3fd79d0aa76
p1165
(dp1166
sVtrm_4a3fd79d0aeb6
p1167
(dp1168
sVtrm_4a3fd79d0ab70
p1169
(dp1170
sVtrm_4a3fd79d0b18f
p1171
(dp1172
sVtrm_4a3fd79d0aaa4
p1173
(dp1174
sVtrm_502abeab4e1d8
p1175
(dp1176
sVtrm_4a3fd79d0ae70
p1177
(dp1178
sVtrm_4f4511e519b53
p1179
(dp1180
sg876
(dp1181
sVtrm_55b6b89222d4c
p1182
(dp1183
sVtrm_4a3fd79d0ab7c
p1184
(dp1185
sVtrm_558c7ae1eaf86
p1186
(dp1187
sVtrm_5521a45a397a6
p1188
(dp1189
sVtrm_4a3fd79d0ad1d
p1190
(dp1191
sVtrm_557b4ab076338
p1192
(dp1193
sVtrm_4a3fd79d0adb7
p1194
(dp1195
sVtrm_4a3fd79d0b1d5
p1196
(dp1197
sVtrm_5595bd2b92003
p1198
(dp1199
sVtrm_559f0986182cc
p1200
(dp1201
sVtrm_4ff1fc04e22e8
p1202
(dp1203
sVtrm_4a3fd79d097ed
p1204
(dp1205
sVtrm_4a3fd79d09a10
p1206
(dp1207
sVtrm_5519b7525d7a2
p1208
(dp1209
sVtrm_4a3fd79d0a746
p1210
(dp1211
sVtrm_4a3fd79d0b130
p1212
(dp1213
sVtrm_55b6b910b4b23
p1214
(dp1215
sVtrm_4a3fd79d0a18b
p1216
(dp1217
sVtrm_4a3fd79d09b04
p1218
(dp1219
sVtrm_558c73f3c8c6f
p1220
(dp1221
sVtrm_4a3fd79d0a116
p1222
(dp1223
sVtrm_4a3fd79d09810
p1224
(dp1225
sVtrm_4a3fd79d0b0b1
p1226
(dp1227
sVtrm_4a3fd79d0b0eb
p1228
(dp1229
sVtrm_558c7439832d9
p1230
(dp1231
sVtrm_4a3fd79d09ad5
p1232
(dp1233
sVtrm_55ef687f48a9d
p1234
(dp1235
sVtrm_4a3fd79d0a590
p1236
(dp1237
sVtrm_4a3fd79d0b13d
p1238
(dp1239
sVtrm_4a3fd79d0a73a
p1240
(dp1241
sVtrm_4fb2c38960950
p1242
(dp1243
sVtrm_4a3fd79d0a9b9
p1244
(dp1245
sVtrm_5521a663cd89c
p1246
(dp1247
sVtrm_4a3fd79d096f0
p1248
(dp1249
sVtrm_557b48aeb7d58
p1250
(dp1251
sVtrm_4a3fd79d0a1d1
p1252
(dp1253
sVtrm_557b49206928b
p1254
(dp1255
sVtrm_4e5505361f160
p1256
(dp1257
sVtrm_555cfb890d721
p1258
(dp1259
sVtrm_4a3fd79d0a252
p1260
(dp1261
sVtrm_4a3fd79d0b311
p1262
(dp1263
sg22
(dp1264
sVtrm_557b4b27dfd5e
p1265
(dp1266
sVtrm_4a3fd79d0b160
p1267
(dp1268
sVtrm_5519b5f181edd
p1269
(dp1270
sVtrm_4a3fd79d0b548
p1271
(dp1272
sVtrm_4a3fd79d0a7bb
p1273
(dp1274
sVtrm_5022ef7599294
p1275
(dp1276
sVtrm_4a3fd79d0b689
p1277
(dp1278
sVtrm_557b4abe521af
p1279
(dp1280
sVtrm_4a3fd79d0b043
p1281
(dp1282
sVtrm_4a3fd79d0a066
p1283
(dp1284
sVtrm_4a3fd79d09827
p1285
(dp1286
sVtrm_4fea18ec76bc9
p1287
(dp1288
sVtrm_558c7b14c076e
p1289
(dp1290
sVtrm_502c139d5ed78
p1291
(dp1292
sVtrm_557b4817db34d
p1293
(dp1294
sVtrm_4a3fd79d0b613
p1295
(dp1296
sVtrm_4ff36d79c26c6
p1297
(dp1298
sVtrm_4a3fd79d0b4a9
p1299
(dp1300
sVtrm_4a3fd79d0a533
p1301
(dp1302
sVtrm_55b6b952c1b4c
p1303
(dp1304
sVtrm_5678a999f1c19
p1305
(dp1306
sg168
(dp1307
sVtrm_5595bd6c61d78
p1308
(dp1309
sVtrm_4a3fd79d09855
p1310
(dp1311
sVtrm_4a3fd79d0a4f9
p1312
(dp1313
sVtrm_4a3fd79d0a833
p1314
(dp1315
sVtrm_557b4b9ccdc4a
p1316
(dp1317
sVtrm_4a3fd79d0aab0
p1318
(dp1319
sVtrm_4a3fd79d0a3ea
p1320
(dp1321
sVtrm_4feb3ffa1ab51
p1322
(dp1323
sVtrm_4c3e05903e4bb
p1324
(dp1325
sVtrm_4a3fd79d0a8fc
p1326
(dp1327
sVtrm_4a3fd79d098c9
p1328
(dp1329
sVtrm_4a3fd79d096be
p1330
(dp1331
sVtrm_557b482a7c62b
p1332
(dp1333
sVtrm_502ab8dd991bf
p1334
(dp1335
sVtrm_4a3fd79d0aa47
p1336
(dp1337
sVtrm_4a3fd79d0aec1
p1338
(dp1339
sVtrm_4a3fd79d0b61f
p1340
(dp1341
sg228
(dp1342
sVtrm_4a3fd79d0ab65
p1343
(dp1344
sVtrm_4a3fd79d0b9e9
p1345
(dp1346
sVtrm_5679b0e9d8c20
p1347
(dp1348
sVtrm_557b4b3a6a34d
p1349
(dp1350
sVtrm_557b48d40d3cf
p1351
(dp1352
sg274
(dp1353
sVtrm_557b4a81a4a17
p1354
(dp1355
sg498
(dp1356
sVtrm_558c7b337080f
p1357
(dp1358
sg983
(dp1359
sVtrm_4a3fd79d0a5ed
p1360
(dp1361
sVtrm_5521a0512df9a
p1362
(dp1363
sVtrm_4a3fd79d0ac87
p1364
(dp1365
sVtrm_55b6b8b8e7870
p1366
(dp1367
sVtrm_4a3fd79d0a908
p1368
(dp1369
sVtrm_5595bda0c5dc3
p1370
(dp1371
sVtrm_4a3fd79d0b08f
p1372
(dp1373
sVtrm_4a3fd79d0addc
p1374
(dp1375
sVtrm_4a3fd79d0b406
p1376
(dp1377
sVtrm_4a3fd79d0a695
p1378
(dp1379
sVtrm_4e31d5c79ddfe
p1380
(dp1381
sVtrm_4a3fd79d0b014
p1382
(dp1383
sVtrm_55b6b92c1fd76
p1384
(dp1385
sVtrm_4a3fd79d0b125
p1386
(dp1387
sVtrm_4ffdc96dc85b7
p1388
(dp1389
sVtrm_4feb3f8c551cb
p1390
(dp1391
sVtrm_4a3fd79d0b083
p1392
(dp1393
sVtrm_5159cb12a0f92
p1394
(dp1395
sVtrm_4a3fd79d09b79
p1396
(dp1397
sVtrm_5519bb7767d98
p1398
(dp1399
sVtrm_4a3fd79d0a17f
p1400
(dp1401
sVtrm_5595be14a57c5
p1402
(dp1403
sVtrm_4a3fd79d097f9
p1404
(dp1405
sVtrm_4a3fd79d0b9ad
p1406
(dp1407
sVtrm_5595bd89d77c6
p1408
(dp1409
sg1045
(dp1410
sVtrm_4a3fd79d0b0c8
p1411
(dp1412
sVtrm_5595bde6b2e95
p1413
(dp1414
sVtrm_558c73b3663a6
p1415
(dp1416
sVtrm_557b494ca540d
p1417
(dp1418
sVtrm_558c7b5228ed4
p1419
(dp1420
sVtrm_4a3fd79d0aee4
p1421
(dp1422
sVtrm_4a3fd79d0a51c
p1423
(dp1424
sVtrm_4a3fd79d0a862
p1425
(dp1426
sVtrm_4a3fd79d0a275
p1427
(dp1428
sVtrm_4a3fd79d09e35
p1429
(dp1430
sVtrm_4a3fd79d096e3
p1431
(dp1432
sVtrm_4a3fd79d0a281
p1433
(dp1434
sVtrm_4a3fd79d0a87a
p1435
(dp1436
sVtrm_4a3fd79d09aed
p1437
(dp1438
sVtrm_4e416f1373936
p1439
(dp1440
sVtrm_558c74156b7ee
p1441
(dp1442
sg1094
(dp1443
sVtrm_4a3fd79d0b9a1
p1444
(dp1445
sVtrm_4a3fd79d0a05b
p1446
(dp1447
sVtrm_4a3fd79d0ae87
p1448
(dp1449
sVtrm_4a3fd79d0ad29
p1450
(dp1451
sVtrm_4a3fd79d0a300
p1452
(dp1453
sg40
(dp1454
sVtrm_4a3fd79d0b306
p1455
(dp1456
sVtrm_4a3fd79d0a269
p1457
(dp1458
sVtrm_557b471bc6cd8
p1459
(dp1460
sVtrm_4a3fd79d09e87
p1461
(dp1462
sVtrm_4a3fd79d0b37a
p1463
(dp1464
sVtrm_4a3fd79d0a30c
p1465
(dp1466
sVtrm_4a3fd79d0b3ef
p1467
(dp1468
sVtrm_4a3fd79d0b279
p1469
(dp1470
sVtrm_4a3fd79d0aa0c
p1471
(dp1472
sVtrm_5521a3da10349
p1473
(dp1474
sg835
(dp1475
sVtrm_4a3fd79d0a7d4
p1476
(dp1477
sVtrm_4a3fd79d0b457
p1478
(dp1479
sVtrm_4a3fd79d0a1ae
p1480
(dp1481
sVtrm_4a3fd79d0b756
p1482
(dp1483
sVtrm_4a3fd79d09a8f
p1484
(dp1485
sVtrm_4b45f467bf238
p1486
(dp1487
sVtrm_55c298bbe56d5
p1488
(dp1489
sVtrm_4a3fd79d09aa7
p1490
(dp1491
sVtrm_4a3fd79d0af7d
p1492
(dp1493
sVtrm_4fea25630ffb5
p1494
(dp1495
sVtrm_557b4b7176394
p1496
(dp1497
sVtrm_557b4af7cc1cb
p1498
(dp1499
sVtrm_5159beaf80413
p1500
(dp1501
sVtrm_4e89aebaa311d
p1502
(dp1503
sVtrm_4a3fd79d09a3d
p1504
(dp1505
sVtrm_52b5f1ef4f9cc
p1506
(dp1507
sg236
(dp1508
sVtrm_4a3fd79d0a431
p1509
(dp1510
sVtrm_4a3fd79d0ba54
p1511
(dp1512
sVtrm_4a3fd79d0aac8
p1513
(dp1514
sVtrm_4a3fd79d09707
p1515
(dp1516
sVtrm_5519ba1746e95
p1517
(dp1518
sVtrm_56006cb5a61ac
p1519
(dp1520
sVtrm_4a3fd79d09849
p1521
(dp1522
sVtrm_55ef3ba010121
p1523
(dp1524
sVtrm_5521a2aa5b127
p1525
(dp1526
sVtrm_4b185801de7a1
p1527
(dp1528
sVtrm_55ef153d47bc0
p1529
(dp1530
sVtrm_4a3fd79d098b2
p1531
(dp1532
sVtrm_5521a5f310604
p1533
(dp1534
sVtrm_4ee8facd77dfc
p1535
(dp1536
sVtrm_4a3fd79d0ad12
p1537
(dp1538
sVtrm_4a3fd79d0a1f4
p1539
(dp1540
sVtrm_4a3fd79d09be2
p1541
(dp1542
sVtrm_4a3fd79d0b89e
p1543
(dp1544
sVtrm_4a3fd79d0ac9e
p1545
(dp1546
sVtrm_557b4904ee26d
p1547
(dp1548
sVtrm_558c73324a6ca
p1549
(dp1550
sVtrm_4a3fd79d0b238
p1551
(dp1552
sVtrm_558c7b707f606
p1553
(dp1554
sVtrm_4a3fd79d0ac93
p1555
(dp1556
sVtrm_4a3fd79d0b892
p1557
(dp1558
sVtrm_4a3fd79d0b1f7
p1559
(dp1560
sVtrm_55b6b9d7c9435
p1561
(dp1562
sVtrm_4a3fd79d09b9c
p1563
(dp1564
sVtrm_557b4891e9265
p1565
(dp1566
sVtrm_523e053844495
p1567
(dp1568
sg396
(dp1569
sVtrm_4a3fd79d0b8e5
p1570
(dp1571
sVtrm_4a3fd79d0983e
p1572
(dp1573
sVtrm_4aae62e4ad209
p1574
(dp1575
sVtrm_4e5faabfe8ce3
p1576
(dp1577
sVtrm_55b6b8e291dba
p1578
(dp1579
sg1074
(dp1580
sVtrm_4a3fd79d0b46f
p1581
(dp1582
sVtrm_557b48a224b95
p1583
(dp1584
sg372
(dp1585
sVtrm_4a3fd79d0a613
p1586
(dp1587
sVtrm_4fe39e4388409
p1588
(dp1589
sVtrm_4a3fd79d0b487
p1590
(dp1591
sVtrm_4a3fd79d0aeef
p1592
(dp1593
sVtrm_4a3fd79d0a04f
p1594
(dp1595
sg470
(dp1596
sVtrm_565bce2791089
p1597
(dp1598
sVtrm_557b4b47d994a
p1599
(dp1600
sVtrm_557b478ce1c24
p1601
(dp1602
sg1083
(dp1603
sVtrm_4a3fd79d0b665
p1604
(dp1605
sVtrm_4a3fd79d0a460
p1606
(dp1607
sVtrm_4a3fd79d0b09a
p1608
(dp1609
sVtrm_4a3fd79d0a044
p1610
(dp1611
sVtrm_4a3fd79d0ba19
p1612
(dp1613
sVtrm_557b4b154e0d9
p1614
(dp1615
sVtrm_557b4844ca14d
p1616
(dp1617
sVtrm_4e5badf095692
p1618
(dp1619
sVtrm_557b4acdee820
p1620
(dp1621
sVtrm_4a3fd79d09a49
p1622
(dp1623
sVtrm_4a3fd79d09ab2
p1624
(dp1625
sVtrm_4a3fd79d0aa6a
p1626
(dp1627
sVtrm_4a3fd79d0b967
p1628
(dp1629
sVtrm_4a3fd79d09e07
p1630
(dp1631
sVtrm_55ef273a77a86
p1632
(dp1633
sVtrm_4a3fd79d09902
p1634
(dp1635
sVtrm_502ad54c11389
p1636
(dp1637
sVtrm_4a3fd79d0aad4
p1638
(dp1639
sVtrm_4a3fd79d0b6dd
p1640
(dp1641
sVtrm_4a3fd79d09c11
p1642
(dp1643
sVtrm_4a3fd79d0b4c1
p1644
(dp1645
sVtrm_557b4b7e68727
p1646
(dp1647
sVtrm_51a690a7492eb
p1648
(dp1649
sVtrm_4a3fd79d098a6
p1650
(dp1651
sVtrm_4a3fd79d09e1e
p1652
(dp1653
sVtrm_4a3fd79d0b4cd
p1654
(dp1655
sVtrm_4a3fd79d0aed8
p1656
(dp1657
sVtrm_4a3fd79d0a81b
p1658
(dp1659
sg126
(dp1660
sVtrm_4fe8edc62f613
p1661
(dp1662
sVtrm_4a3fd79d0b6d1
p1663
(dp1664
sVtrm_4a3fd79d0b0f7
p1665
(dp1666
sVtrm_500d8aef38f2c
p1667
(dp1668
sVtrm_557b477b4a15f
p1669
(dp1670
sVtrm_4a3fd79d0b58f
p1671
(dp1672
sVtrm_557b4aeaeb744
p1673
(dp1674
sVtrm_5534111a8bc96
p1675
(dp1676
sg917
(dp1677
sVtrm_4a3fd79d0adc3
p1678
(dp1679
sVtrm_4a3fd79d0b1e0
p1680
(dp1681
sVtrm_4a3fd79d0abb6
p1682
(dp1683
sVtrm_4a3fd79d0ba30
p1684
(dp1685
sVtrm_4a3fd79d0a72e
p1686
(dp1687
sVtrm_4a3fd79d09786
p1688
(dp1689
sVtrm_557b4b652cbec
p1690
(dp1691
sVtrm_4a3fd79d0a7e0
p1692
(dp1693
sVtrm_5519b80525e89
p1694
(dp1695
sVtrm_4a3fd79d0b037
p1696
(dp1697
sVtrm_4a3fd79d0a038
p1698
(dp1699
sVtrm_4a3fd79d0a723
p1700
(dp1701
sVtrm_551f0d8c69a13
p1702
(dp1703
sVtrm_4a3fd79d0adcf
p1704
(dp1705
sVtrm_55b6b9a666604
p1706
(dp1707
sVtrm_4a3fd79d0ad94
p1708
(dp1709
sVtrm_4a3fd79d0aa2f
p1710
(dp1711
sVtrm_4a3fd79d0b920
p1712
(dp1713
sVtrm_55ce70b20186b
p1714
(dp1715
sVtrm_4e31e6dca01ca
p1716
(dp1717
sVtrm_55ef1fd2bc418
p1718
(dp1719
sVtrm_557b4b05ae470
p1720
(dp1721
sVtrm_4a3fd79d097d6
p1722
(dp1723
sVtrm_553967f006b70
p1724
(dp1725
sVtrm_4a3fd79d0ba48
p1726
(dp1727
sVtrm_4a3fd79d0b95b
p1728
(dp1729
sg306
(dp1730
sVtrm_4a3fd79d09713
p1731
(dp1732
sVtrm_5521a6bc4db33
p1733
(dp1734
sVtrm_557b4bb7cf05b
p1735
(dp1736
sVtrm_55c6f87595b39
p1737
(dp1738
sVtrm_557b4b8cd05ca
p1739
(dp1740
sVtrm_4a3fd79d09b10
p1741
(dp1742
sg438
(dp1743
sVtrm_4a3fd79d0a0a1
p1744
(dp1745
sVtrm_4a3fd79d09953
p1746
(dp1747
sVtrm_4a3fd79d09c5b
p1748
(dp1749
sVtrm_4feb44e5ae25b
p1750
(dp1751
sVtrm_4a3fd79d09b1c
p1752
(dp1753
sVtrm_4a3fd79d0b802
p1754
(dp1755
sVtrm_55b6b96e77df6
p1756
(dp1757
sVtrm_4a3fd79d09d93
p1758
(dp1759
sVtrm_4a3fd79d0b4d8
p1760
(dp1761
sVtrm_5519b92bde7dc
p1762
(dp1763
sVtrm_4b6525253c63f
p1764
(dp1765
sg420
(dp1766
sg1041
(dp1767
sVtrm_5521a51034353
p1768
(dp1769
sVtrm_4e5506161998c
p1770
(dp1771
sVtrm_4a3fd79d0b49e
p1772
(dp1773
sVtrm_4a3fd79d0b8cd
p1774
(dp1775
sVtrm_4a3fd79d0b39d
p1776
(dp1777
sVtrm_4a3fd79d0b4b5
p1778
(dp1779
sVtrm_5521a7a1376ed
p1780
(dp1781
sVtrm_4a3fd79d0b077
p1782
(dp1783
sVtrm_557b4add1837e
p1784
(dp1785
sVtrm_55b6b98b88f45
p1786
(dp1787
sVtrm_557b499fac085
p1788
(dp1789
sVtrm_4a3fd79d0b492
p1790
(dp1791
sVtrm_4a3fd79d0b972
p1792
(dp1793
sVtrm_4a3fd79d0ab4d
p1794
(dp1795
sVtrm_4a3fd79d0ae3d
p1796
(dp1797
sg546
(dp1798
ssg550
g551
sg552
g551
sg553
(dp1799
g1110
(dp1800
g168
(dp1801
ssg16
(dp1802
g1368
(dp1803
ssg1113
(dp1804
Vtrm_4a3fd79d0a275
p1805
(dp1806
ssg1115
(dp1807
g168
(dp1808
sg1764
(dp1809
ssg1117
(dp1810
g168
(dp1811
sg1675
(dp1812
ssg1119
(dp1813
g1131
(dp1814
ssg1121
(dp1815
g1543
(dp1816
sg1419
(dp1817
sg1289
(dp1818
ssg1123
(dp1819
g438
(dp1820
sg1463
(dp1821
sg1557
(dp1822
sg1271
(dp1823
sg1663
(dp1824
sg1754
(dp1825
ssg1125
(dp1826
Vtrm_4a3fd79d0aec1
p1827
(dp1828
ssg1127
(dp1829
g1273
(dp1830
sg1244
(dp1831
ssg1129
(dp1832
g1156
(dp1833
ssg1131
(dp1834
g1608
(dp1835
sVtrm_4a3fd79d0a833
p1836
(dp1837
sg1196
(dp1838
sVtrm_4a3fd79d0b967
p1839
(dp1840
sg1665
(dp1841
sg1728
(dp1842
sg22
(dp1843
sg1478
(dp1844
sg1594
(dp1845
sg1480
(dp1846
sg1592
(dp1847
sg1177
(dp1848
sVtrm_4a3fd79d0b49e
p1849
(dp1850
sg1301
(dp1851
sg1467
(dp1852
sg1490
(dp1853
sg1708
(dp1854
sg1461
(dp1855
sg1119
g1814
ssg1133
(dp1856
g1208
(dp1857
sg1624
(dp1858
ssg1135
(dp1859
Vtrm_4a3fd79d0b613
p1860
(dp1861
ssg1137
(dp1862
g1561
(dp1863
ssg1139
(dp1864
g30
(dp1865
sg1471
(dp1866
ssg1141
(dp1867
g1210
(dp1868
ssg1143
(dp1869
g1349
(dp1870
sg1265
(dp1871
ssg1145
(dp1872
g1714
(dp1873
ssg1147
(dp1874
g1682
(dp1875
ssg100
(dp1876
g1161
(dp1877
ssg1150
(dp1878
Vtrm_4a3fd79d09a10
p1879
(dp1880
ssg1152
(dp1881
Vtrm_565bce2791089
p1882
(dp1883
ssg1154
(dp1884
g1778
(dp1885
sg1165
(dp1886
ssg1156
(dp1887
g1555
(dp1888
sg1692
(dp1889
sg1129
g1833
ssg128
(dp1890
g1192
(dp1891
sg1698
(dp1892
ssg1159
(dp1893
g1561
(dp1894
ssg1161
(dp1895
g1700
(dp1896
sg100
g1877
sg1549
(dp1897
sg1293
(dp1898
sg1529
(dp1899
ssg1163
(dp1900
g1788
(dp1901
sg1574
(dp1902
ssg1165
(dp1903
g1694
(dp1904
sg1154
g1886
ssg1167
(dp1905
g1299
(dp1906
ssg1169
(dp1907
g212
(dp1908
ssg1171
(dp1909
g1087
(dp1910
ssg1173
(dp1911
g1184
(dp1912
ssg1175
(dp1913
g1778
(dp1914
sVtrm_4fb2c38960950
p1915
(dp1916
sVtrm_4a3fd79d0aac8
p1917
(dp1918
sg1624
(dp1919
ssg1177
(dp1920
g1131
g1848
ssg1179
(dp1921
g1368
(dp1922
sg1326
(dp1923
ssg876
(dp1924
g1692
(dp1925
ssg1182
(dp1926
g1543
(dp1927
ssg1184
(dp1928
g1345
(dp1929
sg1173
g1912
sg1513
(dp1930
sg1297
(dp1931
sg1500
(dp1932
sg1746
(dp1933
sVtrm_55ce70b20186b
p1934
(dp1935
sg1716
(dp1936
sg1744
(dp1937
sVtrm_4a3fd79d0b4b5
p1938
(dp1939
sg1750
(dp1940
sVtrm_4a3fd79d09ab2
p1941
(dp1942
sVtrm_5519b7525d7a2
p1943
(dp1944
sg1267
(dp1945
ssg1186
(dp1946
g1578
(dp1947
ssg1188
(dp1948
Vtrm_5521a3da10349
p1949
(dp1950
ssg1190
(dp1951
g1210
(dp1952
ssg1192
(dp1953
g128
g1891
ssg1194
(dp1954
g1827
(dp1955
ssg1196
(dp1956
g1131
g1838
ssg1198
(dp1957
g1413
(dp1958
sg1604
(dp1959
ssg1200
(dp1960
g1547
(dp1961
ssg1202
(dp1962
g1429
(dp1963
ssg1204
(dp1964
g1570
(dp1965
sVtrm_4a3fd79d09810
p1966
(dp1967
ssg1206
(dp1968
g1634
(dp1969
sg1150
g1880
ssg1208
(dp1970
g1184
g1944
sg1133
g1857
sg1265
(dp1971
sg1720
(dp1972
ssg1210
(dp1973
g1678
(dp1974
sVtrm_4a3fd79d0a044
p1975
(dp1976
sg1457
(dp1977
sg1640
(dp1978
sg1423
(dp1979
sg1141
g1868
sg1248
(dp1980
sg1190
g1952
sg1642
(dp1981
ssg1212
(dp1982
g1273
(dp1983
ssg1214
(dp1984
g498
(dp1985
ssg1216
(dp1986
g1698
(dp1987
ssg1218
(dp1988
g22
(dp1989
ssg1220
(dp1990
g182
(dp1991
ssg1222
(dp1992
g1634
(dp1993
ssg1224
(dp1994
g1827
(dp1995
sg1204
g1967
ssg1226
(dp1996
g1805
(dp1997
ssg1228
(dp1998
g1400
(dp1999
ssg1230
(dp2000
g1349
(dp2001
ssg1232
(dp2002
g102
(dp2003
ssg1234
(dp2004
g236
(dp2005
sg1628
(dp2006
sg1289
(dp2007
ssg1236
(dp2008
g1360
(dp2009
sg1827
(dp2010
ssg1238
(dp2011
g420
(dp2012
ssg1240
(dp2013
g30
(dp2014
ssg1242
(dp2015
g1310
(dp2016
sg1778
(dp2017
sVtrm_502abeab4e1d8
p2018
g1916
sg1667
(dp2019
sg1494
(dp2020
ssg1244
(dp2021
Vtrm_4a3fd79d0b0a6
p2022
g1831
ssg1246
(dp2023
Vtrm_4e89aebaa311d
p2024
(dp2025
ssg1248
(dp2026
g1210
g1980
ssg1250
(dp2027
g1714
(dp2028
ssg1252
(dp2029
g1648
(dp2030
ssg1254
(dp2031
g1561
(dp2032
ssg1256
(dp2033
g1618
(dp2034
sg1686
(dp2035
sg1770
(dp2036
ssg1258
(dp2037
g1305
(dp2038
sg1565
(dp2039
sg1415
(dp2040
ssg1260
(dp2041
g306
(dp2042
ssg1262
(dp2043
g1634
(dp2044
ssg22
(dp2045
g1680
(dp2046
sg1218
g1989
sg1439
(dp2047
sg1131
g1843
sg1372
(dp2048
sg1760
(dp2049
sg1545
(dp2050
ssg1265
(dp2051
g1208
g1971
sg1778
(dp2052
sg1143
g1871
ssg1267
(dp2053
g1776
(dp2054
sVtrm_4fe39e4388409
p2055
(dp2056
sg1139
g1865
sg1184
g1945
sVtrm_4a3fd79d0aa0c
p2057
(dp2058
sg1796
(dp2059
sg1240
g2014
ssg1269
(dp2060
g1574
(dp2061
ssg1271
(dp2062
g1437
(dp2063
sg1123
g1823
ssg1273
(dp2064
g835
(dp2065
sg1212
g1983
sg1427
(dp2066
sg1597
(dp2067
sg1127
g1830
sg1094
(dp2068
sg1606
(dp2069
ssg1275
(dp2070
g1400
(dp2071
ssg1277
(dp2072
g1351
(dp2073
sg1567
(dp2074
ssg1279
(dp2075
g1281
(dp2076
sg126
(dp2077
ssg1281
(dp2078
g1634
(dp2079
sg1279
g2076
ssg1283
(dp2080
g1360
(dp2081
ssg1285
(dp2082
g1360
(dp2083
sg1431
(dp2084
ssg1287
(dp2085
g1654
(dp2086
ssg1289
(dp2087
g1121
g1818
sg1234
g2007
ssg1291
(dp2088
g1790
(dp2089
ssg1293
(dp2090
g1161
g1898
ssg1295
(dp2091
g1574
(dp2092
sg1135
g1861
ssg1297
(dp2093
g1184
g1931
ssg1299
(dp2094
g1496
(dp2095
sg1498
(dp2096
sg1318
(dp2097
sg1465
(dp2098
sg1167
g1906
sg1739
(dp2099
ssg1301
(dp2100
g1131
g1851
sg1502
(dp2101
ssg1303
(dp2102
g498
(dp2103
ssg1305
(dp2104
g1258
g2038
ssg168
(dp2105
Vtrm_557b493e4203a
p2106
g1808
sg1764
(dp2107
sg1110
g1801
sg1117
g1811
ssg1308
(dp2108
g1413
(dp2109
ssg1310
(dp2110
g1778
(dp2111
sg1242
g2016
ssg1312
(dp2112
g1772
(dp2113
ssg1314
(dp2114
g1594
(dp2115
sg1131
g1837
sg1710
(dp2116
sg1782
(dp2117
ssg1316
(dp2118
g1671
(dp2119
sg1349
(dp2120
sg1220
g1991
ssg1318
(dp2121
g1488
(dp2122
sg1628
(dp2123
sg1299
g2097
sg1724
(dp2124
ssg1320
(dp2125
g1360
(dp2126
ssg1322
(dp2127
g1634
(dp2128
ssg1324
(dp2129
g1574
(dp2130
sg1702
(dp2131
sg1706
(dp2132
ssg1326
(dp2133
Vtrm_4f4511e519b53
p2134
g1923
ssg1328
(dp2135
g1882
(dp2136
sg1169
g1908
ssg1330
(dp2137
g1827
(dp2138
ssg1332
(dp2139
g1604
(dp2140
sg1614
(dp2141
ssg1334
(dp2142
g903
(dp2143
ssg1336
(dp2144
g470
(dp2145
ssg1338
(dp2146
g1435
(dp2147
sg1194
g1955
sg1630
(dp2148
sg1125
g1828
sg1330
g2138
sg1236
g2010
sg1658
(dp2149
sg1425
(dp2150
sg1698
(dp2151
sg1224
g1995
sg1450
(dp2152
ssg1340
(dp2153
g372
(dp2154
ssg228
(dp2155
g1574
(dp2156
ssg1343
(dp2157
g1690
(dp2158
sg1628
(dp2159
ssg1345
(dp2160
g1606
(dp2161
sg1184
g1929
ssg1347
(dp2162
Vtrm_557b4844ca14d
p2163
(dp2164
sg1648
(dp2165
ssg1349
(dp2166
g1599
(dp2167
sg1496
(dp2168
sg1316
g2120
sg1718
(dp2169
sg1230
g2001
sg1143
g1870
sg1778
(dp2170
ssg1351
(dp2171
g1277
g2073
sg1400
(dp2172
sg1382
(dp2173
ssg274
(dp2174
g1574
(dp2175
ssg1354
(dp2176
g40
(dp2177
sg1521
(dp2178
ssg498
(dp2179
g1786
(dp2180
sg1553
(dp2181
sg1214
g1985
sg1523
(dp2182
sg1303
g2103
sg1756
(dp2183
sg1357
(dp2184
sg1384
(dp2185
ssg1357
(dp2186
g498
g2184
ssg983
(dp2187
g1469
(dp2188
sg1563
(dp2189
ssg1360
(dp2190
g1285
g2083
sg1283
g2081
sg1537
(dp2191
sg1236
g2009
sg1748
(dp2192
sg1402
(dp2193
sg1698
(dp2194
sg1320
g2126
sg1404
(dp2195
ssg1362
(dp2196
g1762
(dp2197
sg1398
(dp2198
sg1484
(dp2199
ssg1364
(dp2200
g1570
(dp2201
ssg1366
(dp2202
g1628
(dp2203
sg1624
(dp2204
ssg1368
(dp2205
g1626
(dp2206
sg16
g1803
sg1722
(dp2207
sg1448
(dp2208
sg1179
g1922
sg1644
(dp2209
ssg1370
(dp2210
g1413
(dp2211
sVtrm_5595be14a57c5
p2212
(dp2213
ssg1372
(dp2214
g22
g2048
ssg1374
(dp2215
Vtrm_4a3fd79d0aa2f
p2216
(dp2217
ssg1376
(dp2218
g1750
(dp2219
ssg1378
(dp2220
g1805
(dp2221
ssg1380
(dp2222
g1746
(dp2223
sg1716
(dp2224
ssg1382
(dp2225
g1351
g2173
sg1400
(dp2226
ssg1384
(dp2227
g498
g2185
ssg1386
(dp2228
g1882
(dp2229
ssg1388
(dp2230
g1429
(dp2231
ssg1390
(dp2232
g1634
(dp2233
ssg1392
(dp2234
Vtrm_4a3fd79d0a04f
p2235
(dp2236
ssg1394
(dp2237
g835
(dp2238
ssg1396
(dp2239
g1535
(dp2240
ssg1398
(dp2241
g1362
g2198
ssg1400
(dp2242
g1351
g2172
sg1455
(dp2243
sg1382
g2226
sg1275
g2071
sg1228
g1999
ssg1402
(dp2244
g1360
g2193
sg1370
g2213
ssg1404
(dp2245
g1360
g2195
ssg1406
(dp2246
g1444
(dp2247
sg1714
(dp2248
sg1334
g2143
ssg1408
(dp2249
g1413
(dp2250
ssg1045
(dp2251
g1726
(dp2252
sg1612
(dp2253
ssg1411
(dp2254
g1696
(dp2255
ssg1413
(dp2256
g1452
(dp2257
sg1408
g2250
sg1628
(dp2258
sg1198
g1958
sg1370
g2211
sg1308
g2109
ssg1415
(dp2259
g1506
(dp2260
sg1258
g2040
ssg1417
(dp2261
g1583
(dp2262
ssg1419
(dp2263
g1121
g1817
sg1496
(dp2264
ssg1421
(dp2265
g2235
(dp2266
ssg1423
(dp2267
g1210
g1979
ssg1425
(dp2268
g1827
g2150
ssg1427
(dp2269
g1226
g1997
sg1273
g2066
sg1656
(dp2270
sg1113
g1806
sg1531
(dp2271
sg1378
g2221
ssg1429
(dp2272
g1388
g2231
sg1202
g1963
ssg1431
(dp2273
Vtrm_4a3fd79d09827
p2274
g2084
ssg1433
(dp2275
g2235
(dp2276
ssg1435
(dp2277
g1827
g2147
ssg1437
(dp2278
g58
g2063
ssg1439
(dp2279
g22
g2047
ssg1441
(dp2280
g1506
(dp2281
ssg1094
(dp2282
g1273
g2068
ssg1444
(dp2283
g903
g2247
ssg1446
(dp2284
g1610
(dp2285
ssg1448
(dp2286
g1368
g2208
ssg1450
(dp2287
g1827
g2152
ssg1452
(dp2288
Vtrm_5595bde6b2e95
p2289
g2257
ssg40
(dp2290
g1354
g2177
ssg1455
(dp2291
g1400
g2243
ssg1457
(dp2292
g1210
g1977
ssg1459
(dp2293
g1698
(dp2294
ssg1461
(dp2295
g1131
g1855
sg1661
(dp2296
ssg1463
(dp2297
g1123
g1821
ssg1465
(dp2298
g1299
g2098
sVtrm_557b4b154e0d9
p2299
(dp2300
sg1628
(dp2301
ssg1467
(dp2302
g1131
g1852
ssg1469
(dp2303
g983
g2188
ssg1471
(dp2304
g30
g2058
sg1588
(dp2305
sg1139
g1866
ssg1473
(dp2306
g2024
(dp2307
sg1733
(dp2308
sg1188
g1950
ssg835
(dp2309
g1273
g2065
sg1394
g2238
ssg1476
(dp2310
g1570
(dp2311
ssg1478
(dp2312
g1131
g1844
ssg1480
(dp2313
g1131
g1846
ssg1482
(dp2314
g1570
(dp2315
ssg1484
(dp2316
g1362
g2199
ssg1486
(dp2317
g1535
(dp2318
ssg1488
(dp2319
g1318
g2122
ssg1490
(dp2320
g1131
g1853
sg1527
(dp2321
ssg1492
(dp2322
g1570
(dp2323
ssg1494
(dp2324
g1242
g2020
ssg1496
(dp2325
g2299
(dp2326
sg1646
(dp2327
sg1628
(dp2328
sg1349
g2168
sg1299
g2095
sg1601
(dp2329
sg1690
(dp2330
sg1778
(dp2331
sg1419
g2264
ssg1498
(dp2332
g1299
g2096
ssg1500
(dp2333
g420
(dp2334
sg1184
g1932
ssg1502
(dp2335
g1768
(dp2336
sg1882
(dp2337
sg1246
g2025
sVtrm_4a3fd79d0a533
p2338
g2101
sg1525
(dp2339
sg1733
(dp2340
sg1780
(dp2341
sg1517
(dp2342
sg1533
(dp2343
sg1473
g2307
ssg1504
(dp2344
g1570
(dp2345
ssg1506
(dp2346
g1415
g2260
sg1441
g2281
sg1545
(dp2347
ssg236
(dp2348
g1234
g2005
ssg1509
(dp2349
g1684
(dp2350
ssg1511
(dp2351
g1650
(dp2352
ssg1513
(dp2353
g1175
g1918
sg1184
g1930
ssg1515
(dp2354
g1570
(dp2355
ssg1517
(dp2356
g2024
g2342
ssg1519
(dp2357
g1634
(dp2358
ssg1521
(dp2359
g284
g2178
sg1583
(dp2360
ssg1523
(dp2361
g498
g2182
ssg1525
(dp2362
g2024
g2339
ssg1527
(dp2363
g198
g2321
ssg1529
(dp2364
g1161
g1899
ssg1531
(dp2365
g1805
g2271
ssg1533
(dp2366
g2024
g2343
ssg1535
(dp2367
g1486
g2318
sg1574
(dp2368
sg86
(dp2369
sg1396
g2240
ssg1537
(dp2370
g1360
g2191
ssg1539
(dp2371
g2235
(dp2372
sg1171
g1910
sg1741
(dp2373
ssg1541
(dp2374
Vtrm_4a3fd79d0ae3d
p2375
(dp2376
ssg1543
(dp2377
Vtrm_568427366401c
p2378
g1816
sg1754
(dp2379
sg1182
g1927
ssg1545
(dp2380
g1506
g2347
sg22
g2050
ssg1547
(dp2381
g1200
g1961
sg1684
(dp2382
ssg1549
(dp2383
g1161
g1897
sg1698
(dp2384
ssg1551
(dp2385
g1559
(dp2386
ssg1553
(dp2387
g498
g2181
ssg1555
(dp2388
g1156
g1888
ssg1557
(dp2389
g1232
g2003
sg1123
g1822
ssg1559
(dp2390
g1551
g2386
ssg1561
(dp2391
g1669
(dp2392
sg1254
g2032
sg1137
g1863
sg1684
(dp2393
sg1620
(dp2394
sg1735
(dp2395
sg1159
g1894
sg1737
(dp2396
sg1673
(dp2397
ssg1563
(dp2398
g983
g2189
ssg1565
(dp2399
g1258
g2039
sg1698
(dp2400
ssg1567
(dp2401
Vtrm_4a3fd79d0b689
p2402
g2074
ssg396
(dp2403
g1784
(dp2404
ssg1570
(dp2405
g1204
g1965
sg1515
g2355
sg1476
g2311
sg1364
g2201
sg1504
g2345
sg1482
g2315
sg1622
(dp2406
sg1492
g2323
ssg1572
(dp2407
g470
(dp2408
ssg1574
(dp2409
g1295
g2092
sg1324
g2130
sg274
g2175
sg1269
g2061
sg530
(dp2410
sVtrm_4c3e04d656f06
p2411
g1902
sg228
g2156
sg1041
(dp2412
sVtrm_4ee8facd77dfc
p2413
g2368
ssg1576
(dp2414
Vtrm_4e5badf095692
p2415
(dp2416
ssg1578
(dp2417
g1186
g1947
ssg1074
(dp2418
g1688
(dp2419
ssg1581
(dp2420
g1634
(dp2421
sg126
(dp2422
ssg1583
(dp2423
g1417
g2262
sg1521
g2360
ssg372
(dp2424
g1340
g2154
ssg1586
(dp2425
g1574
g2410
sg306
(dp2426
ssg1588
(dp2427
g2057
g2305
sg30
g2056
ssg1590
(dp2428
g408
(dp2429
ssg1592
(dp2430
g1131
g1847
ssg1594
(dp2431
g1421
g2266
sg1433
g2276
sg1314
g2115
sg1392
g2236
sg1539
g2372
sg1131
g1845
ssg470
(dp2432
g1336
g2145
sg1572
g2408
sg1714
(dp2433
ssg1597
(dp2434
g1386
g2229
sg1152
g1883
sg1682
(dp2435
sg1328
g2136
sg1273
g2067
sg1502
g2337
sg1704
(dp2436
ssg1599
(dp2437
g1349
g2167
ssg1601
(dp2438
g1758
(dp2439
sg1496
g2329
ssg1083
(dp2440
g1790
(dp2441
ssg1604
(dp2442
g1628
(dp2443
sg1332
g2140
sg1198
g1959
ssg1606
(dp2444
Vtrm_4a3fd79d0b9e9
p2445
g2161
sg1273
g2069
ssg1608
(dp2446
g1131
g1835
ssg1610
(dp2447
g1210
g1976
sg1446
g2285
ssg1612
(dp2448
g1045
g2253
ssg1614
(dp2449
Vtrm_4a3fd79d0a30c
p2450
g2300
sg1332
g2141
sg1496
g2326
ssg1616
(dp2451
g1648
(dp2452
sg1347
g2164
ssg1618
(dp2453
g1576
g2416
sg1256
g2034
ssg1620
(dp2454
g1561
g2394
ssg1622
(dp2455
g1570
g2406
ssg1624
(dp2456
g1366
g2204
sg1175
g1919
sg1731
(dp2457
sg1184
g1942
sg1632
(dp2458
sg1133
g1858
sg546
(dp2459
ssg1626
(dp2460
g1368
g2206
ssg1628
(dp2461
Vtrm_557b4b7176394
p2462
g2328
sVtrm_55ef687f48a9d
p2463
g2006
sg186
g2123
sg2289
g2258
sg1366
g2203
sg1465
g2301
sVtrm_4a3fd79d0b58f
p2464
(dp2465
sg496
g2443
sg1131
g1840
sVtrm_4a3fd79d0ab65
p2466
g2159
ssg1630
(dp2467
g1827
g2148
ssg1632
(dp2468
g1624
g2458
ssg1634
(dp2469
Vtrm_4a3fd79d0b043
p2470
g2079
sg1322
g2128
sg1390
g2233
sg1519
g2358
sg1262
g2044
sg1206
g1969
sg1794
(dp2471
sg1222
g1993
sVtrm_4a3fd79d0b46f
p2472
g2421
ssg1636
(dp2473
g1778
(dp2474
ssg1638
(dp2475
g917
(dp2476
ssg1640
(dp2477
g1210
g1978
ssg1642
(dp2478
g1210
g1981
ssg1644
(dp2479
g1368
g2209
ssg1646
(dp2480
g1496
g2327
ssg1648
(dp2481
g1616
g2452
sg1535
g2369
sg1347
g2165
sg1252
g2030
ssg1650
(dp2482
g1511
g2352
ssg1652
(dp2483
g1654
(dp2484
ssg1654
(dp2485
g1696
(dp2486
sg1652
g2484
sg1287
g2086
ssg1656
(dp2487
g1805
g2270
ssg1658
(dp2488
g1827
g2149
ssg126
(dp2489
g1279
g2077
sg1581
g2422
ssg1661
(dp2490
Vtrm_4a3fd79d09e87
p2491
g2296
ssg1663
(dp2492
g1123
g1824
ssg1665
(dp2493
g1131
g1841
ssg1667
(dp2494
g1242
g2019
ssg1669
(dp2495
g1561
g2392
ssg1671
(dp2496
g1316
g2119
sg1628
g2465
ssg1673
(dp2497
g1561
g2397
ssg1675
(dp2498
Vtrm_557b48e337218
p2499
g1812
ssg917
(dp2500
g1638
g2476
ssg1678
(dp2501
g1210
g1974
ssg1680
(dp2502
g22
g2046
ssg1682
(dp2503
g1882
g2435
sg1147
g1875
ssg1684
(dp2504
g1547
g2382
sg1509
g2350
sVtrm_55b6b9d7c9435
p2505
g2393
ssg1686
(dp2506
g1256
g2035
ssg1688
(dp2507
g1074
g2419
ssg1690
(dp2508
g1343
g2158
sg1496
g2330
ssg1692
(dp2509
g876
g1925
sg1156
g1889
ssg1694
(dp2510
Vtrm_4a3fd79d0aa76
p2511
g1904
sg1714
(dp2512
sg546
(dp2513
ssg1696
(dp2514
g1654
g2486
sg1411
g2255
ssg1698
(dp2515
Vtrm_4a3fd79d0a5ed
p2516
g2194
sg1549
g2384
sg1459
g2294
sg1338
g2151
sg390
g2400
sg128
g1892
sg1216
g1987
ssg1700
(dp2517
g370
g1896
ssg1702
(dp2518
g1324
g2131
ssg1704
(dp2519
g1882
g2436
ssg1706
(dp2520
g1324
g2132
ssg1708
(dp2521
g1131
g1854
ssg1710
(dp2522
g1374
g2217
sg1314
g2116
ssg1712
(dp2523
g1792
(dp2524
sg1774
(dp2525
ssg1714
(dp2526
g1406
g2248
sVtrm_5519b80525e89
p2527
g2512
sg1184
g1935
sg1145
g1873
sg1250
g2028
sg470
g2433
ssg1716
(dp2528
g1184
g1936
sg1380
g2224
ssg1718
(dp2529
g1349
g2169
ssg1720
(dp2530
g1208
g1972
sg1758
(dp2531
ssg1722
(dp2532
g1368
g2207
ssg1724
(dp2533
g1318
g2124
ssg1726
(dp2534
g1045
g2252
ssg1728
(dp2535
g1131
g1842
sg1752
(dp2536
ssg306
(dp2537
g1586
g2426
sg1260
g2042
ssg1731
(dp2538
g1624
g2457
ssg1733
(dp2539
g2024
g2340
sg1949
g2308
ssg1735
(dp2540
g1561
g2395
ssg1737
(dp2541
g1561
g2396
ssg1739
(dp2542
g1299
g2099
ssg1741
(dp2543
g1087
g2373
ssg438
(dp2544
g1123
g1820
ssg1744
(dp2545
g1184
g1937
ssg1746
(dp2546
g1184
g1933
sg1380
g2223
ssg1748
(dp2547
g1360
g2192
ssg1750
(dp2548
g1376
g2219
sg1184
g1940
ssg1752
(dp2549
g304
g2536
ssg1754
(dp2550
g800
g2379
sg46
g1825
ssg1756
(dp2551
g498
g2183
ssg1758
(dp2552
g1720
g2531
sg1601
g2439
ssg1760
(dp2553
g1772
(dp2554
sg1590
g2429
sg22
g2049
ssg1762
(dp2555
g1362
g2197
ssg1764
(dp2556
g1115
g1809
sg168
g2107
ssg420
(dp2557
g1500
g2334
sg1238
g2012
ssg1041
(dp2558
g1574
g2412
ssg1768
(dp2559
g2024
g2336
ssg1770
(dp2560
g1256
g2036
ssg1772
(dp2561
g1131
g1850
sg1312
g2113
sg1760
g2554
ssg1774
(dp2562
g1712
g2525
ssg1776
(dp2563
g30
g2054
ssg1778
(dp2564
g1310
g2111
sg1175
g1914
sg1154
g1885
sg2462
g2331
sg1915
g2017
sg1349
g2170
sg1184
g1939
sg1265
g2052
sg1636
g2474
ssg1780
(dp2565
g2024
g2341
ssg1782
(dp2566
g1314
g2117
ssg1784
(dp2567
g396
g2404
ssg1786
(dp2568
g498
g2180
ssg1788
(dp2569
g1163
g1901
ssg1790
(dp2570
g1291
g2089
sg1083
g2441
ssg1792
(dp2571
Vtrm_4a3fd79d0b920
p2572
g2524
ssg1794
(dp2573
g1634
g2471
ssg1796
(dp2574
g30
g2059
sg1541
g2376
ssg546
(dp2575
g1694
g2513
sg1624
g2459
sssg1101
(dp2576
sg1103
g551
sg1104
g1799
sbs.